((iutils2
Vocab
p0
(dp1
S'labels'
p2
(lp3
S'rroot'
p4
aS'cc'
p5
aS'number'
p6
aS'ccomp'
p7
aS'possessive'
p8
aS'prt'
p9
aS'num'
p10
aS'nsubjpass'
p11
aS'csubj'
p12
aS'conj'
p13
aS'amod'
p14
aS'nn'
p15
aS'neg'
p16
aS'discourse'
p17
aS'mark'
p18
aS'auxpass'
p19
aS'infmod'
p20
aS'mwe'
p21
aS'advcl'
p22
aS'aux'
p23
aS'prep'
p24
aS'parataxis'
p25
aS'nsubj'
p26
aS'<null>'
p27
aS'rcmod'
p28
aS'advmod'
p29
aS'punct'
p30
aS'quantmod'
p31
aS'tmod'
p32
aS'acomp'
p33
aS'pcomp'
p34
aS'poss'
p35
aS'npadvmod'
p36
aS'xcomp'
p37
aS'cop'
p38
aS'partmod'
p39
aS'dep'
p40
aS'appos'
p41
aS'det'
p42
aS'dobj'
p43
aS'pobj'
p44
aS'iobj'
p45
aS'expl'
p46
aS'predet'
p47
aS'preconj'
p48
aS'root'
p49
asS'tags'
p50
(lp51
S'PRP$'
p52
aS'VBG'
p53
aS'FW'
p54
aS'<root>'
p55
aS'VBN'
p56
aS'POS'
p57
aS"''"
p58
aS'VBP'
p59
aS'WDT'
p60
aS'JJ'
p61
aS'WP'
p62
aS'VBZ'
p63
aS'DT'
p64
aS'#'
p65
aS'RP'
p66
aS'$'
p67
aS'NN'
p68
aS'VBD'
p69
aS','
p70
aS'.'
p71
aS'TO'
p72
aS'PRP'
p73
aS'RB'
p74
aS'-LRB-'
p75
aS':'
p76
aS'NNS'
p77
aS'NNP'
p78
aS'``'
p79
aS'WRB'
p80
aS'CC'
p81
aS'<null>'
p82
aS'PDT'
p83
aS'RBS'
p84
aS'RBR'
p85
aS'CD'
p86
aS'EX'
p87
aS'IN'
p88
aS'WP$'
p89
aS'MD'
p90
aS'NNPS'
p91
aS'-RRB-'
p92
aS'JJS'
p93
aS'JJR'
p94
aS'VB'
p95
aS'UH'
p96
asS'act_dict'
p97
(dp98
S'RIGHT-ARC:xcomp'
p99
I80
sS'RIGHT-ARC:prep'
p100
I67
sS'RIGHT-ARC:cc'
p101
I48
sS'RIGHT-ARC:csubj'
p102
I55
sS'LEFT-ARC:rcmod'
p103
I25
sS'RIGHT-ARC:poss'
p104
I78
sS'RIGHT-ARC:rcmod'
p105
I71
sS'RIGHT-ARC:punct'
p106
I73
sS'LEFT-ARC:nsubj'
p107
I23
sS'LEFT-ARC:iobj'
p108
I42
sS'RIGHT-ARC:prt'
p109
I52
sS'LEFT-ARC:prep'
p110
I21
sS'RIGHT-ARC:nsubjpass'
p111
I54
sS'LEFT-ARC:mark'
p112
I15
sS'LEFT-ARC:predet'
p113
I44
sS'LEFT-ARC:advmod'
p114
I26
sS'LEFT-ARC:npadvmod'
p115
I33
sS'RIGHT-ARC:predet'
p116
I90
sS'RIGHT-ARC:acomp'
p117
I76
sS'LEFT-ARC:pcomp'
p118
I31
sS'RIGHT-ARC:det'
p119
I85
sS'RIGHT-ARC:dep'
p120
I83
sS'LEFT-ARC:nsubjpass'
p121
I8
sS'LEFT-ARC:ccomp'
p122
I4
sS'RIGHT-ARC:expl'
p123
I89
sS'RIGHT-ARC:advmod'
p124
I72
sS'LEFT-ARC:tmod'
p125
I29
sS'RIGHT-ARC:conj'
p126
I56
sS'RIGHT-ARC:mwe'
p127
I64
sS'RIGHT-ARC:amod'
p128
I86
sS'LEFT-ARC:amod'
p129
I40
sS'LEFT-ARC:mwe'
p130
I18
sS'RIGHT-ARC:cop'
p131
I81
sS'LEFT-ARC:cc'
p132
I2
sS'LEFT-ARC:quantmod'
p133
I28
sS'LEFT-ARC:prt'
p134
I6
sS'LEFT-ARC:aux'
p135
I20
sS'RIGHT-ARC:tmod'
p136
I75
sS'RIGHT-ARC:quantmod'
p137
I74
sS'LEFT-ARC:infmod'
p138
I17
sS'LEFT-ARC:poss'
p139
I32
sS'LEFT-ARC:conj'
p140
I10
sS'RIGHT-ARC:infmod'
p141
I63
sS'LEFT-ARC:pobj'
p142
I41
sS'RIGHT-ARC:ccomp'
p143
I50
sS'LEFT-ARC:advcl'
p144
I19
sS'RIGHT-ARC:nn'
p145
I58
sS'RIGHT-ARC:number'
p146
I49
sS'RIGHT-ARC:possessive'
p147
I51
sS'LEFT-ARC:csubj'
p148
I9
sS'RIGHT-ARC:neg'
p149
I59
sS'LEFT-ARC:appos'
p150
I38
sS'RIGHT-ARC:preconj'
p151
I91
sS'LEFT-ARC:auxpass'
p152
I16
sS'RIGHT-ARC:iobj'
p153
I88
sS'RIGHT-ARC:mark'
p154
I61
sS'LEFT-ARC:expl'
p155
I43
sS'LEFT-ARC:number'
p156
I3
sS'LEFT-ARC:possessive'
p157
I5
sS'RIGHT-ARC:pcomp'
p158
I77
sS'LEFT-ARC:parataxis'
p159
I22
sS'LEFT-ARC:acomp'
p160
I30
sS'RIGHT-ARC:parataxis'
p161
I68
sS'RIGHT-ARC:partmod'
p162
I82
sS'RIGHT-ARC:discourse'
p163
I60
sS'RIGHT-ARC:dobj'
p164
I57
sS'LEFT-ARC:dep'
p165
I37
sS'LEFT-ARC:det'
p166
I39
sS'RIGHT-ARC:num'
p167
I53
sS'LEFT-ARC:root'
p168
I46
sS'LEFT-ARC:cop'
p169
I35
sS'RIGHT-ARC:auxpass'
p170
I62
sS'LEFT-ARC:xcomp'
p171
I34
sS'LEFT-ARC:discourse'
p172
I14
sS'LEFT-ARC:rroot'
p173
I1
sS'SHIFT'
p174
I0
sS'LEFT-ARC:<null>'
p175
I24
sS'RIGHT-ARC:appos'
p176
I84
sS'RIGHT-ARC:npadvmod'
p177
I79
sS'RIGHT-ARC:pobj'
p178
I87
sS'LEFT-ARC:partmod'
p179
I36
sS'RIGHT-ARC:advcl'
p180
I65
sS'RIGHT-ARC:nsubj'
p181
I69
sS'LEFT-ARC:punct'
p182
I27
sS'LEFT-ARC:nn'
p183
I12
sS'RIGHT-ARC:root'
p184
I92
sS'LEFT-ARC:num'
p185
I7
sS'LEFT-ARC:dobj'
p186
I11
sS'RIGHT-ARC:rroot'
p187
I47
sS'RIGHT-ARC:aux'
p188
I66
sS'LEFT-ARC:neg'
p189
I13
sS'RIGHT-ARC:<null>'
p190
I70
sS'LEFT-ARC:preconj'
p191
I45
ssS'actions'
p192
(lp193
g99
ag100
ag101
ag102
ag103
ag104
ag105
ag106
ag107
ag108
ag109
ag110
ag111
ag112
ag113
ag114
ag115
ag116
ag117
ag118
ag119
ag120
ag121
ag122
ag123
ag124
ag125
ag126
ag127
ag128
ag129
ag130
ag131
ag132
ag133
ag134
ag135
ag136
ag137
ag138
ag139
ag140
ag141
ag142
ag143
ag144
ag145
ag146
ag147
ag148
ag149
ag150
ag151
ag152
ag153
ag154
ag155
ag156
ag157
ag158
ag159
ag160
ag161
ag162
ag163
ag164
ag165
ag166
ag167
ag168
ag169
ag170
ag171
ag172
ag173
ag174
ag175
ag176
ag177
ag178
ag179
ag180
ag181
ag182
ag183
ag184
ag185
ag186
ag187
ag188
ag189
ag190
ag191
asS'word_dict'
p194
(dp195
S'limited'
p196
I3629
sS'consolidated'
p197
I1158
sS'magnetic'
p198
I1159
sS'Hunt'
p199
I1718
sS'self-incrimination'
p200
I1162
sS'four'
p201
I3
sS'facilities'
p202
I3631
sS'protest'
p203
I2379
sS'Does'
p204
I4
sS'controversial'
p205
I1164
sS'aides'
p206
I2380
sS'consists'
p207
I2381
sS'Communist'
p208
I3632
sS'oldest'
p209
I1165
sS'Until'
p210
I5
sS'consider'
p211
I576
sS'relationships'
p212
I1166
sS'whose'
p213
I2382
sS'votes'
p214
I1167
sS'public-relations'
p215
I3634
sS'violate'
p216
I3635
sS'eligible'
p217
I7
sS'electricity'
p218
I8
sS'Honda'
p219
I2383
sS'Oka'
p220
I3636
sS'investigation'
p221
I394
sS'Western'
p222
I9
sS'under'
p223
I3637
sS'buyer'
p224
I2241
sS'herbicide'
p225
I10
sS'pride'
p226
I3638
sS'worth'
p227
I1169
sS'founding'
p228
I4373
sS'placed'
p229
I1132
sS'pact'
p230
I1956
sS'legislators'
p231
I3639
sS'Pilgrim'
p232
I2440
sS'propane'
p233
I11
sS'Industry'
p234
I3641
sS'1,111'
p235
I77
sS'costume'
p236
I2148
sS'homes'
p237
I3527
sS'stolen'
p238
I4423
sS'every'
p239
I3643
sS'Pressed'
p240
I2385
sS'reforms'
p241
I2386
sS'affect'
p242
I2387
sS'GM'
p243
I3644
sS'sleek'
p244
I2388
sS'bringing'
p245
I14
sS'trailer'
p246
I1851
sS'vast'
p247
I2389
sS'Continental'
p248
I3630
sS'disturb'
p249
I15
sS'Maxwell'
p250
I16
sS'investigator'
p251
I1171
sS'crops'
p252
I2391
sS'cause'
p253
I2173
sS'companies'
p254
I2392
sS'solution'
p255
I2393
sS'viable'
p256
I1575
sS'samurai'
p257
I1172
sS'Nasdaq'
p258
I17
sS'specialties'
p259
I18
sS'announced'
p260
I1173
sS'cholesterol'
p261
I2395
sS'tours'
p262
I578
sS'Paul'
p263
I19
sS'Hess'
p264
I1174
sS'heading'
p265
I2396
sS'Europeans'
p266
I3646
sS'non-violent'
p267
I20
sS'Pinkerton'
p268
I21
sS'charter'
p269
I22
sS'expanded'
p270
I761
sS'force'
p271
I2397
sS'restated'
p272
I579
sS'guidelines'
p273
I3649
sS'estimates'
p274
I3650
sS'direct'
p275
I3651
sS'anti-smoking'
p276
I1847
sS'chef'
p277
I1175
sS'elegant'
p278
I24
sS'second'
p279
I25
sS'street'
p280
I3652
sS'Gideon'
p281
I3653
sS'Collins'
p282
I1176
sS'sterile'
p283
I26
sS'machines'
p284
I1177
sS'Saint-Saens'
p285
I3654
sS'even'
p286
I2399
sS'established'
p287
I1178
sS'Counterpoint'
p288
I27
sS'errors'
p289
I28
sS'previously'
p290
I2342
sS'postpone'
p291
I1170
sS'defenses'
p292
I1577
sS'contributed'
p293
I29
sS'fingers'
p294
I30
sS'poison'
p295
I2537
sS'spokesman'
p296
I2402
sS'hostile'
p297
I2177
sS'above'
p298
I2545
sS'conduct'
p299
I3658
sS'new'
p300
I2404
sS'net'
p301
I162
sS'increasing'
p302
I31
sS'officially'
p303
I1179
sS'consisting'
p304
I1180
sS'seeks'
p305
I3659
sS'shocks'
p306
I32
sS'specialist'
p307
I33
sS'Brown'
p308
I1762
sS'3/8'
p309
I2149
sS'men'
p310
I179
sS'disposable'
p311
I2407
sS'Budget'
p312
I35
sS'here'
p313
I36
sS'hundreds'
p314
I3660
sS'conglomerate'
p315
I1183
sS'reported'
p316
I37
sS'protection'
p317
I1184
sS'studio'
p318
I3661
sS'active'
p319
I2412
sS'100'
p320
I2413
sS'101'
p321
I2414
sS'obtained'
p322
I1185
sS'1985'
p323
I3596
sS'balance'
p324
I2590
sS'Merrill'
p325
I2583
sS'ventures'
p326
I2587
sS'items'
p327
I1186
sS'employees'
p328
I1187
sS'climbed'
p329
I39
sS'regulators'
p330
I981
sS'reports'
p331
I40
sS'ignoring'
p332
I2415
sS'credit'
p333
I2416
sS'Stelco'
p334
I41
sS'Wellington'
p335
I2281
sS'neurologist'
p336
I42
sS'military'
p337
I43
sS'settled'
p338
I2611
sS'issuers'
p339
I3668
sS'criticism'
p340
I44
sS'golden'
p341
I45
sS'Petty'
p342
I3669
sS'Group'
p343
I3670
sS'home'
p344
I2330
sS'campaign'
p345
I2417
sS'owed'
p346
I765
sS'St.'
p347
I2418
sS')'
p348
I3538
sS'Relations'
p349
I2419
sS'replace'
p350
I46
sS'brought'
p351
I47
sS'Also'
p352
I2420
sS'undesirable'
p353
I2443
sS'Health'
p354
I1190
sS'Khan'
p355
I3240
sS'Basin'
p356
I48
sS'total'
p357
I1191
sS'indictment'
p358
I1381
sS'unit'
p359
I49
sS'hoping'
p360
I767
sS'contractions'
p361
I1192
sS'swings'
p362
I3672
sS'marketers'
p363
I50
sS'would'
p364
I3673
sS'carpet'
p365
I1761
sS'nine'
p366
I1805
sS'hospital'
p367
I3674
sS'Nonetheless'
p368
I205
sS'June'
p369
I3676
sS'chooses'
p370
I1194
sS'music'
p371
I51
sS'asset'
p372
I3677
sS'strike'
p373
I52
sS'survive'
p374
I2425
sS'type'
p375
I2426
sS'until'
p376
I53
sS'PaineWebber'
p377
I1195
sS'main'
p378
I2776
sS'Ark.'
p379
I3678
sS'relax'
p380
I54
sS'successful'
p381
I55
sS'brings'
p382
I56
sS'training'
p383
I401
sS'audit'
p384
I1079
sS'hurt'
p385
I57
sS'phone'
p386
I3680
sS'Datapoint'
p387
I296
sS'Stock'
p388
I771
sS'arms'
p389
I2422
sS'charged'
p390
I1684
sS'emeritus'
p391
I1197
sS'90'
p392
I58
sS'hole'
p393
I59
sS'92'
p394
I60
sS'blocking'
p395
I1198
sS'circumstances'
p396
I61
sS'Salomon'
p397
I13
sS'1990'
p398
I1200
sS'1993'
p399
I1201
sS'1992'
p400
I1202
sS'join'
p401
I3684
sS'1994'
p402
I1203
sS'1997'
p403
I2710
sS'rights'
p404
I2431
sS'pursue'
p405
I62
sS'Exchequer'
p406
I1979
sS'work'
p407
I1204
sS'gasoline'
p408
I2433
sS'Most'
p409
I1948
sS'movies'
p410
I2434
sS'itself'
p411
I3243
sS'era'
p412
I1205
sS'install'
p413
I3685
sS'leaped'
p414
I322
sS'guise'
p415
I323
sS'experts'
p416
I3827
sS'2.3'
p417
I2206
sS'revenues'
p418
I64
sS'my'
p419
I3686
sS'example'
p420
I65
sS'male-fertile'
p421
I3687
sS'phrase'
p422
I1525
sS'Owen'
p423
I2178
sS'receivables'
p424
I34
sS'La'
p425
I67
sS'cited'
p426
I1207
sS'in'
p427
I2595
sS'laughs'
p428
I2437
sS'November'
p429
I3604
sS'honey'
p430
I348
sS'indicates'
p431
I1208
sS'woman'
p432
I4249
sS'caution'
p433
I2669
sS'Holding'
p434
I357
sS'Digital'
p435
I2748
sS'story'
p436
I4331
sS'attract'
p437
I3690
sS'totaled'
p438
I1209
sS'risk'
p439
I3640
sS'male-sterile'
p440
I3691
sS'end'
p441
I3692
sS'recovery'
p442
I1210
sS'knows'
p443
I1449
sS'carriers'
p444
I1211
sS'provide'
p445
I1212
sS'Journal'
p446
I1213
sS'customers'
p447
I4470
sS'damage'
p448
I69
sS'machine'
p449
I70
sS'how'
p450
I71
sS'hot'
p451
I72
sS'Jack'
p452
I2441
sS'accusations'
p453
I3122
sS'interview'
p454
I1214
sS'gate'
p455
I3694
sS'ordinary'
p456
I1215
sS'Co.'
p457
I4434
sS'beach'
p458
I1216
sS'77.3'
p459
I75
sS'Zealand'
p460
I1217
sS'badly'
p461
I3696
sS'regional'
p462
I12
sS'minority'
p463
I2444
sS'L.'
p464
I78
sS'after'
p465
I1218
sS'lab'
p466
I1219
sS'Ocean'
p467
I1220
sS'Will'
p468
I1221
sS'wrong'
p469
I79
sS'mph'
p470
I1766
sS'Yorker'
p471
I3698
sS'Hungary'
p472
I1585
sS'president'
p473
I2446
sS'law'
p474
I1222
sS'Ebensburg'
p475
I2447
sS'purchase'
p476
I2448
sS'All'
p477
I2449
sS'attempt'
p478
I2450
sS'7/8'
p479
I3699
sS'effective'
p480
I80
sS'Civil'
p481
I2452
sS'wins'
p482
I81
sS'acknowledged'
p483
I3701
sS'Tiant'
p484
I82
sS'Telerate'
p485
I2454
sS'think'
p486
I2800
sS'cigarettes'
p487
I83
sS'Salinas'
p488
I3703
sS'maintain'
p489
I2455
sS'chemical'
p490
I2750
sS'Another'
p491
I84
sS'Rouge'
p492
I2840
sS'uninsured'
p493
I2456
sS'Fannie'
p494
I1223
sS'order'
p495
I1224
sS'wind'
p496
I85
sS'operations'
p497
I2458
sS'Brazil'
p498
I405
sS'office'
p499
I1225
sS'Agnelli'
p500
I2459
sS'Blackstone'
p501
I86
sS'fall'
p502
I3016
sS'vary'
p503
I87
sS'satisfied'
p504
I1226
sS'parts'
p505
I2295
sS'6.7'
p506
I1227
sS'6.6'
p507
I1228
sS'6.5'
p508
I1229
sS'Ontario'
p509
I406
sS'6.3'
p510
I1231
sS'Inner'
p511
I1232
sS'12.5'
p512
I1233
sS'innovative'
p513
I1234
sS'Canadian'
p514
I2076
sS'before'
p515
I2460
sS'His'
p516
I90
sS'fit'
p517
I91
sS'somewhere'
p518
I1235
sS'PRI'
p519
I2463
sS'50,000'
p520
I1236
sS'Here'
p521
I3708
sS'better'
p522
I481
sS'production'
p523
I1237
sS'16.3'
p524
I3709
sS'400'
p525
I3710
sS'Judge'
p526
I1238
sS'weeks'
p527
I2467
sS'easier'
p528
I92
sS'overcome'
p529
I2468
sS'inventory'
p530
I3831
sS'then'
p531
I1239
sS'them'
p532
I1240
sS'S&Ls'
p533
I2469
sS'spray'
p534
I1938
sS'weakness'
p535
I2470
sS'slate'
p536
I93
sS'safe'
p537
I3250
sS'Thomas'
p538
I2390
sS'break'
p539
I1241
sS'educating'
p540
I94
sS'therapy'
p541
I2472
sS'reaches'
p542
I3444
sS'they'
p543
I1242
sS'one'
p544
I408
sS'slats'
p545
I96
sS'bank'
p546
I1243
sS'Control'
p547
I1244
sS'represents'
p548
I97
sS'30-year'
p549
I3713
sS'pollution-control'
p550
I2473
sS'Gary'
p551
I3425
sS'Indeed'
p552
I2474
sS'India'
p553
I524
sS'Four'
p554
I3714
sS'Milan'
p555
I2475
sS'Planning'
p556
I2476
sS'Tacker'
p557
I2477
sS'each'
p558
I3717
sS'went'
p559
I2480
sS'7.90'
p560
I1246
sS'7.91'
p561
I1247
sS'Transport'
p562
I3718
sS'mean'
p563
I536
sS'lifted'
p564
I1248
sS'financial'
p565
I99
sS'directly'
p566
I1592
sS'independent'
p567
I1383
sS'series'
p568
I100
sS'crimes'
p569
I1249
sS'Eastern'
p570
I996
sS'Aside'
p571
I1250
sS'Stelzer'
p572
I1251
sS'marital'
p573
I2484
sS'vote'
p574
I410
sS'used'
p575
I1971
sS'trading'
p576
I2485
sS'combining'
p577
I3723
sS'substantially'
p578
I101
sS'laboratory'
p579
I102
sS'dawn'
p580
I2487
sS'sounds'
p581
I2808
sS'contend'
p582
I2488
sS'Hahn'
p583
I103
sS'20.125'
p584
I104
sS'network'
p585
I1252
sS'driving'
p586
I3724
sS'display'
p587
I2361
sS'Chancellor'
p588
I3725
sS'waive'
p589
I105
sS'crucial'
p590
I2489
sS'monitor'
p591
I2771
sS'vessels'
p592
I1253
sS'content'
p593
I2490
sS'Transmission'
p594
I1973
sS'encourage'
p595
I106
sS'unrelated'
p596
I2394
sS'Capel'
p597
I992
sS'human-rights'
p598
I2604
sS'surprise'
p599
I2491
sS'newly'
p600
I3727
sS'size'
p601
I1595
sS'sluggish'
p602
I2492
sS'Chivas'
p603
I107
sS'housing'
p604
I1118
sS'disputed'
p605
I1254
sS'written'
p606
I2256
sS'veto'
p607
I1255
sS'University'
p608
I108
sS'given'
p609
I4031
sS'free'
p610
I3728
sS'standard'
p611
I1256
sS'admits'
p612
I1257
sS'disputes'
p613
I1258
sS'streamline'
p614
I3729
sS'time-limited'
p615
I3730
sS'boosting'
p616
I3731
sS'Minpeco'
p617
I2495
sS'estimate'
p618
I110
sS'Lecheria'
p619
I2496
sS'Frankfurt'
p620
I111
sS'1.8415'
p621
I2497
sS'Nixon'
p622
I2498
sS'delight'
p623
I2605
sS'enormous'
p624
I112
sS'won'
p625
I1933
sS'Monday'
p626
I413
sS'created'
p627
I1259
sS'September'
p628
I1260
sS'National'
p629
I1261
sS'Mingo'
p630
I113
sS'days'
p631
I3733
sS'show'
p632
I2850
sS'pence'
p633
I3734
sS'AMERICAN'
p634
I1262
sS'levels'
p635
I779
sS'oppose'
p636
I1263
sS'smokers'
p637
I3067
sS'Paris'
p638
I1023
sS'1970s'
p639
I114
sS'moving'
p640
I4449
sS'caught'
p641
I1597
sS'user'
p642
I1976
sS'enjoy'
p643
I3647
sS'U.K.'
p644
I1264
sS'Mediobanca'
p645
I1265
sS'cup'
p646
I3262
sS'features'
p647
I2501
sS'economists'
p648
I2502
sS'researcher'
p649
I3736
sS'Ackerman'
p650
I1266
sS'primary'
p651
I3737
sS'executions'
p652
I2503
sS'clear'
p653
I1909
sS'featured'
p654
I2504
sS'relations'
p655
I2190
sS'another'
p656
I1267
sS'comic'
p657
I1268
sS'ditch'
p658
I2505
sS'electronic'
p659
I1270
sS'Azoff'
p660
I1271
sS'illustrate'
p661
I1272
sS'anyone'
p662
I2811
sS'rated'
p663
I1273
sS'service'
p664
I115
sS'attach'
p665
I2191
sS'lawsuits'
p666
I116
sS'takeovers'
p667
I1274
sS'free-lance'
p668
I1598
sS'approximately'
p669
I1275
sS'heights'
p670
I3127
sS'needed'
p671
I117
sS'Devario'
p672
I3742
sS'master'
p673
I118
sS'listed'
p674
I119
sS'draft'
p675
I417
sS'Mesa'
p676
I2506
sS'bitter'
p677
I120
sS'ranging'
p678
I121
sS'Alexander'
p679
I122
sS'chanted'
p680
I1277
sS'urban'
p681
I3747
sS'190-point'
p682
I1278
sS'B'
p683
I1279
sS'luxury'
p684
I1294
sS'collapse'
p685
I123
sS'tool'
p686
I3749
sS'diversified'
p687
I1280
sS'serve'
p688
I3750
sS'took'
p689
I3751
sS'rejected'
p690
I1281
sS'kiddies'
p691
I3165
sS'western'
p692
I3753
sS'somewhat'
p693
I2507
sS'practiced'
p694
I2609
sS'Communications'
p695
I4486
sS'begins'
p696
I2508
sS'distance'
p697
I2509
sS'composer'
p698
I814
sS'Code'
p699
I124
sS'target'
p700
I3193
sS'showed'
p701
I125
sS'Coda'
p702
I126
sS'programs'
p703
I2610
sS'tree'
p704
I127
sS'likely'
p705
I2398
sS'nations'
p706
I128
sS'project'
p707
I129
sS'matter'
p708
I2511
sS'Unix'
p709
I2326
sS'classes'
p710
I3755
sS'silly'
p711
I2512
sS'Sea'
p712
I1282
sS'budget'
p713
I762
sS'Sen'
p714
I1283
sS'feeling'
p715
I130
sS'powers'
p716
I1284
sS'acquisition'
p717
I131
sS'interests'
p718
I1285
sS'Vice'
p719
I1365
sS'fashion'
p720
I3756
sS'sees'
p721
I2517
sS'steelmaker'
p722
I2518
sS'willingness'
p723
I132
sS'Chicago'
p724
I133
sS'ran'
p725
I3757
sS'HealthVest'
p726
I3758
sS'mind'
p727
I2519
sS'mine'
p728
I751
sS'500,000'
p729
I1286
sS'spent'
p730
I3251
sS'talking'
p731
I3759
sS'seed'
p732
I2521
sS'manner'
p733
I1287
sS'Instead'
p734
I1288
sS'seem'
p735
I2523
sS'Haussmann'
p736
I134
sS'seek'
p737
I2524
sS'relatively'
p738
I3761
sS'Pravda'
p739
I1289
sS'forced'
p740
I1290
sS'strength'
p741
I1291
sS'1969'
p742
I3762
sS'responsible'
p743
I136
sS'floating-rate'
p744
I137
sS'isolated'
p745
I3764
sS'thorough'
p746
I3765
sS'indexes'
p747
I1292
sS'sound'
p748
I2906
sS'subjects'
p749
I1293
sS'Minister'
p750
I138
sS'doors'
p751
I797
sS'brains'
p752
I1602
sS'pension'
p753
I1156
sS'dragged'
p754
I699
sS'Stevenson'
p755
I3452
sS'Bank'
p756
I140
sS'unsecured'
p757
I1297
sS'concedes'
p758
I141
sS'acquire'
p759
I1299
sS'transactions'
p760
I142
sS'Ogden'
p761
I3767
sS'pretty'
p762
I1916
sS'Arizona'
p763
I674
sS'Mead'
p764
I1302
sS'letter'
p765
I143
sS'8.05'
p766
I3769
sS'phase'
p767
I1303
sS'Aug.'
p768
I2321
sS'Alabama'
p769
I2527
sS'Coca-Cola'
p770
I2528
sS'Bond'
p771
I1304
sS'stock-price'
p772
I841
sS'singer'
p773
I145
sS'antitrust'
p774
I848
sS'professor'
p775
I147
sS'camp'
p776
I148
sS'flow'
p777
I3770
sS'newcomers'
p778
I1306
sS'treaty'
p779
I3322
sS'competitors'
p780
I2531
sS'points'
p781
I2532
sS'sources'
p782
I2307
sS'principle'
p783
I2533
sS'Giovanni'
p784
I593
sS'Institutes'
p785
I1309
sS'voting'
p786
I1310
sS'consumer'
p787
I2534
sS'notion'
p788
I1058
sS'came'
p789
I149
sS'reserve'
p790
I1312
sS'saying'
p791
I150
sS'reactor'
p792
I151
sS'O.'
p793
I787
sS'reductions'
p794
I3778
sS'meetings'
p795
I152
sS'labels'
p796
I3348
sS'ending'
p797
I2536
sS'showing'
p798
I1994
sS'liberty'
p799
I3657
sS'participate'
p800
I154
sS'Anne'
p801
I3356
sS'Congressional'
p802
I155
sS'European'
p803
I1313
sS'Dec.'
p804
I1314
sS'20-year'
p805
I4627
sS'just'
p806
I2618
sS'Unocal'
p807
I1073
sS'representing'
p808
I420
sS'Republicans'
p809
I1317
sS'Free'
p810
I2541
sS'interbank'
p811
I157
sS'Records'
p812
I3781
sS'theme'
p813
I158
sS'Inc.'
p814
I1604
sS'pursuing'
p815
I1319
sS'announce'
p816
I3782
sS'adequate'
p817
I1320
sS'rice'
p818
I159
sS'jailed'
p819
I2543
sS'smaller'
p820
I4538
sS'wearing'
p821
I2544
sS'plate'
p822
I160
sS'Spielvogel'
p823
I1696
sS'10'
p824
I2815
sS'de'
p825
I1322
sS'stop'
p826
I2546
sS'television'
p827
I1605
sS'preferred'
p828
I1323
sS'yielded'
p829
I1324
sS'criticized'
p830
I3785
sS'Ogilvy'
p831
I595
sS'Bognato'
p832
I2198
sS'equity-purchase'
p833
I2547
sS'altogether'
p834
I161
sS'report'
p835
I3787
sS'Organization'
p836
I2548
sS'vividly'
p837
I1325
sS'Labor'
p838
I788
sS'Soviet'
p839
I1326
sS'volatility'
p840
I963
sS'Senators'
p841
I164
sS'runs'
p842
I1327
sS'spots'
p843
I1119
sS'bar'
p844
I2550
sS'Moore'
p845
I3788
sS'Armstrong'
p846
I1328
sS'covering'
p847
I1329
sS'ever'
p848
I2405
sS'Washington'
p849
I2552
sS'twice'
p850
I3791
sS'Clinic'
p851
I1330
sS'three-year'
p852
I165
sS'rival'
p853
I422
sS'release'
p854
I166
sS'told'
p855
I1181
sS'Clearly'
p856
I167
sS'mergers'
p857
I3792
sS'Clifford'
p858
I3441
sS'respond'
p859
I168
sS'mandatory'
p860
I169
sS'District'
p861
I995
sS'Gorbachev'
p862
I1333
sS'contract-drilling'
p863
I4762
sS'observed'
p864
I1334
sS'decided'
p865
I1005
sS'projections'
p866
I1335
sS'cattle'
p867
I1336
sS'discussions'
p868
I1337
sS'John'
p869
I172
sS'half-an-hour'
p870
I2556
sS'best'
p871
I173
sS'subject'
p872
I2557
sS'sedans'
p873
I174
sS'said'
p874
I2558
sS'capacity'
p875
I3794
sS'lots'
p876
I175
sS'away'
p877
I1338
sS'141.90'
p878
I176
sS'patients'
p879
I4629
sS'unable'
p880
I1339
sS'cooperation'
p881
I1340
sS'Prices'
p882
I1341
sS'drawn'
p883
I1342
sS'Technologies'
p884
I1343
sS'tolerance'
p885
I2559
sS'yields'
p886
I811
sS'preserve'
p887
I177
sS'wage'
p888
I3260
sS'we'
p889
I1344
sS'never'
p890
I2406
sS'terms'
p891
I1345
sS'extend'
p892
I1051
sS'nature'
p893
I180
sS'wo'
p894
I1346
sS'Financial'
p895
I2707
sS'however'
p896
I3795
sS'33,000'
p897
I3510
sS'U.S.-Japan'
p898
I3848
sS'drew'
p899
I2408
sS'clues'
p900
I1347
sS'news'
p901
I3798
sS'convertible'
p902
I1348
sS'debt'
p903
I182
sS'improve'
p904
I3799
sS'suggested'
p905
I2560
sS'received'
p906
I1350
sS'essentially'
p907
I3524
sS'providing'
p908
I2202
sS'accused'
p909
I2346
sS'met'
p910
I2410
sS'resistant'
p911
I2561
sS'country'
p912
I183
sS'readers'
p913
I790
sS'pollinated'
p914
I2563
sS'tracks'
p915
I1781
sS'against'
p916
I2564
sS'players'
p917
I3804
sS'merging'
p918
I3540
sS'109'
p919
I2411
sS'planned'
p920
I184
sS'faces'
p921
I3807
sS'Leche'
p922
I185
sS'requests'
p923
I1353
sS'argue'
p924
I186
sS'Several'
p925
I942
sS'asked'
p926
I187
sS'Feb.'
p927
I1354
sS'N.M.'
p928
I2513
sS'tone'
p929
I1355
sS'1.5'
p930
I4632
sS'appeared'
p931
I2565
sS'Gas'
p932
I1402
sS'irresponsible'
p933
I188
sS'excess'
p934
I1782
sS'COMMERCIAL'
p935
I2566
sS'represented'
p936
I3662
sS'tons'
p937
I1356
sS'massive'
p938
I403
sS'initiative'
p939
I2567
sS'Board'
p940
I1357
sS'tony'
p941
I1358
sS'250'
p942
I189
sS'251'
p943
I190
sS'telecommunications'
p944
I1359
sS'insiders'
p945
I755
sS'conference'
p946
I3811
sS'strong'
p947
I1784
sS'jobless'
p948
I3582
sS'asks'
p949
I1110
sS'basis'
p950
I2570
sS'union'
p951
I1111
sS'Marcos'
p952
I192
sS'Southern'
p953
I3814
sS'three'
p954
I2571
sS'tiny'
p955
I2572
sg71
I193
sS'Early'
p956
I2573
sS'commission'
p957
I2574
sS'beer'
p958
I3818
sS'much'
p959
I194
sS'interest'
p960
I2575
sS'basic'
p961
I2576
sS'privilege'
p962
I195
sS'parents'
p963
I791
sS'entered'
p964
I2577
sS'dozens'
p965
I1362
sS'duties'
p966
I1363
sS'threw'
p967
I2579
sS'face-to-face'
p968
I928
sS'life'
p969
I196
sS'AFL-CIO'
p970
I3820
sS'deeper'
p971
I2580
sS'Tokyo'
p972
I197
sS'Pennsylvania'
p973
I3822
sS'<null>'
p974
I1
sS'Poland'
p975
I198
sS'Jan.'
p976
I3960
sS'CD'
p977
I2581
sS'Donovan'
p978
I199
sS'lift'
p979
I200
sS'personally'
p980
I2582
sS'catch'
p981
I3823
sS'NCNB'
p982
I1650
sS'worked'
p983
I201
sS'Trans'
p984
I3824
sS'Secretary'
p985
I3825
sS'applied'
p986
I1366
sS'unpopular'
p987
I2584
sS'save'
p988
I2625
sS'Co'
p989
I2585
sS'publicly'
p990
I1367
sS'economies'
p991
I2586
sS'air'
p992
I1368
sS'employ'
p993
I202
sS'auction'
p994
I3664
sS'near'
p995
I2588
sS'Market'
p996
I764
sS'seeds'
p997
I1112
sS'aid'
p998
I1369
sS'property'
p999
I1370
sS'elaborate'
p1000
I38
sS'launched'
p1001
I1371
sS'pastry'
p1002
I2829
sS'seven'
p1003
I2592
sS'changed'
p1004
I3665
sS'MCI'
p1005
I1018
sS'Mitsui'
p1006
I204
sS'played'
p1007
I1193
sS'is'
p1008
I2593
sS'FHA'
p1009
I1196
sS'it'
p1010
I2594
sS'holdings'
p1011
I191
sS'CVN'
p1012
I1373
sS'player'
p1013
I206
sS'Bush'
p1014
I3826
sS'tissue'
p1015
I1374
sS'upscale'
p1016
I207
sS'experience'
p1017
I600
sS'world-wide'
p1018
I1375
sS'Capital'
p1019
I208
sS'exile'
p1020
I1377
sS'victims'
p1021
I796
sS'confident'
p1022
I3817
sS'if'
p1023
I2597
sS'grown'
p1024
I2598
sS'confirmed'
p1025
I1378
sS'bottles'
p1026
I2599
sS'things'
p1027
I209
sS'make'
p1028
I2600
sS'leveraged'
p1029
I1101
sS'amount'
p1030
I1790
sS'Kremlin'
p1031
I3829
sS'Ill.'
p1032
I1380
sS'feuding'
p1033
I210
sS'split'
p1034
I211
sS'Of'
p1035
I800
sS'President'
p1036
I2601
sS'sidelines'
p1037
I2602
sS'couple'
p1038
I801
sS'analysts'
p1039
I3666
sS'fairly'
p1040
I213
sS'satellite'
p1041
I3722
sS'Institute'
p1042
I1384
sS'Maybe'
p1043
I214
sS'social'
p1044
I602
sS'middle-aged'
p1045
I215
sS'hand'
p1046
I1385
sS'Angeles'
p1047
I216
sS'day'
p1048
I3421
sS'Morris'
p1049
I2606
sS'Monsanto'
p1050
I3834
sS'ownership'
p1051
I217
sS'Home'
p1052
I1188
sS'insisted'
p1053
I3836
sS'opportunity'
p1054
I2607
sS'blamed'
p1055
I1386
sS'tune'
p1056
I218
sS'midsized'
p1057
I219
sS'butter'
p1058
I2608
sS'kept'
p1059
I1387
sS'RJR'
p1060
I220
sS'1978'
p1061
I1388
sS'she'
p1062
I2247
sS'1976'
p1063
I1389
sS'1975'
p1064
I1390
sS'supervisors'
p1065
I2627
sS'1971'
p1066
I1391
sS'urged'
p1067
I2056
sS'academic'
p1068
I221
sS'savings'
p1069
I3840
sS'materials'
p1070
I542
sS'greatest'
p1071
I3841
sS'Batman'
p1072
I2212
sS'claims'
p1073
I2613
sS'the'
p1074
I1393
sS'800'
p1075
I2614
sS'corporate'
p1076
I222
sS'investments'
p1077
I2615
sS'left'
p1078
I2616
sS'Pete'
p1079
I1394
sS'Swank'
p1080
I1395
sS'quoted'
p1081
I1396
sS'yen'
p1082
I2619
sS'Cambodia'
p1083
I1397
sS'aside'
p1084
I433
sS'assigned'
p1085
I2620
sS'proposes'
p1086
I3846
sS'completed'
p1087
I1296
sS'Management'
p1088
I3279
sS'thanks'
p1089
I1398
sS'human'
p1090
I1182
sS'Day'
p1091
I3937
sS'houses'
p1092
I1865
sS'yet'
p1093
I2621
sS'succeeding'
p1094
I223
sS'previous'
p1095
I224
sS'adding'
p1096
I1400
sS'buyers'
p1097
I2622
sS'designers'
p1098
I1405
sS'capacity-expansion'
p1099
I1401
sS'ease'
p1100
I225
sS'had'
p1101
I226
sS'emphasis'
p1102
I227
sS'Leonard'
p1103
I228
sS'spread'
p1104
I1403
sS'board'
p1105
I1404
sS'easy'
p1106
I1364
sS'News'
p1107
I2624
sS'Philip'
p1108
I3849
sS'has'
p1109
I229
sS'gave'
p1110
I3851
sS'Building'
p1111
I2626
sS'Santa'
p1112
I3468
sS'freedom'
p1113
I2339
sS'James'
p1114
I3852
sS'posed'
p1115
I230
sS'possible'
p1116
I231
sS'possibly'
p1117
I232
sS'cultural'
p1118
I3839
sS'buy-out'
p1119
I2628
sS'Chrysler'
p1120
I233
sS'wanting'
p1121
I2629
sS'judge'
p1122
I3854
sS'firmed'
p1123
I1399
sS'highly'
p1124
I1189
sS'retreat'
p1125
I1406
sS'apart'
p1126
I3856
sS'desire'
p1127
I234
sS'59'
p1128
I3857
sS'58'
p1129
I3858
sS'gift'
p1130
I3859
sS'visible'
p1131
I3671
sS'55'
p1132
I3861
sS'54'
p1133
I3862
sS'Shevardnadze'
p1134
I3860
sS'51'
p1135
I3863
sS'unnecessary'
p1136
I2630
sS'53'
p1137
I3865
sS'securities'
p1138
I1407
sS'private'
p1139
I802
sS'steps'
p1140
I235
sS'flaps'
p1141
I1651
sS'Jr.'
p1142
I2368
sS'Steven'
p1143
I236
sS'Lawrence'
p1144
I2348
sS'security'
p1145
I1409
sS'Agnellis'
p1146
I2632
sS'Pentagon'
p1147
I237
sS'Prince'
p1148
I1425
sS'S.'
p1149
I1410
sS'beneficial'
p1150
I238
sS'right'
p1151
I239
sS'old'
p1152
I240
sS'crowd'
p1153
I241
sS'people'
p1154
I242
sS'successfully'
p1155
I3869
sS'Sunbird'
p1156
I1411
sS'System'
p1157
I1437
sS'elderly'
p1158
I2635
sS'50'
p1159
I3864
sS'consultants'
p1160
I243
sS'Much'
p1161
I3870
sS'election'
p1162
I3871
sS'unless'
p1163
I3470
sS'short-term'
p1164
I2636
sS'W.Va'
p1165
I2637
sS'consensus'
p1166
I808
sS'Nixdorf'
p1167
I244
sS'for'
p1168
I245
sS'stronger'
p1169
I1019
sS'consecutive'
p1170
I2240
sS'Nobody'
p1171
I2639
sS'reinvest'
p1172
I3874
sS'savings-type'
p1173
I3875
sS'creative'
p1174
I246
sS'everything'
p1175
I3876
sS'asking'
p1176
I1414
sS'Let'
p1177
I1415
sS'motor-control'
p1178
I2640
sS'denied'
p1179
I1416
sS'offices'
p1180
I3867
sS'Accepted'
p1181
I3878
sS'Stoll'
p1182
I2631
sS'participation'
p1183
I1417
sS'He'
p1184
I3879
sS'core'
p1185
I3880
sS'School'
p1186
I1418
sS'expires'
p1187
I2218
sS'bold'
p1188
I2641
sS'marketing'
p1189
I1419
sS'corn'
p1190
I3881
sS'predicting'
p1191
I1496
sS'conventional'
p1192
I1794
sS'discount'
p1193
I3882
sS'outlays'
p1194
I3965
sS'Deposit'
p1195
I3883
sS'packages'
p1196
I1349
sS'losing'
p1197
I248
sS'brokerage'
p1198
I249
sS'post'
p1199
I1421
sS'manufacturing'
p1200
I250
sS'properties'
p1201
I1422
sS'First'
p1202
I251
sS'dollars'
p1203
I252
sS'months'
p1204
I1424
sS'rolled'
p1205
I181
sS'magazine'
p1206
I2644
sS'misleading'
p1207
I3884
sS'plus'
p1208
I2516
sS'banker'
p1209
I1426
sS'AG'
p1210
I2050
sS'efforts'
p1211
I3886
sS'Gomez'
p1212
I3887
sS'slightly'
p1213
I253
sS'objectives'
p1214
I608
sS'automatically'
p1215
I2647
sS'Donaldson'
p1216
I66
sS'consulting'
p1217
I254
sS'Express'
p1218
I3675
sS'statements'
p1219
I255
sS'publishing'
p1220
I746
sS'formerly'
p1221
I2650
sS'facility'
p1222
I256
sS'civil'
p1223
I3890
sS'pays'
p1224
I1427
sS'attorney'
p1225
I1886
sS'son'
p1226
I257
sS'administer'
p1227
I258
sS'device'
p1228
I1014
sS'accomplishments'
p1229
I3891
sS'magazines'
p1230
I259
sS'capped'
p1231
I1428
sS'Korean'
p1232
I260
sS'defendants'
p1233
I261
sS'pollen-inhibiting'
p1234
I1429
sS'particularly'
p1235
I3171
sS'branch'
p1236
I2034
sS'Cranston'
p1237
I2653
sS'deal'
p1238
I2633
sS'support'
p1239
I262
sS'flying'
p1240
I828
sS'legislation'
p1241
I1430
sS'cosmetics'
p1242
I1089
sS'one-time'
p1243
I263
sS'fight'
p1244
I1431
sS'fought'
p1245
I3894
sS'authorized'
p1246
I264
sS'wrongdoing'
p1247
I1432
sS'resulted'
p1248
I265
sS'call'
p1249
I2423
sS'was'
p1250
I1433
sS'war'
p1251
I1434
sS'launching'
p1252
I266
sS'interest-rate'
p1253
I1435
sS'head'
p1254
I3895
sS'economics'
p1255
I203
sS'slip'
p1256
I941
sS'form'
p1257
I1614
sS'offer'
p1258
I267
sS'Assume'
p1259
I2662
sS'January'
p1260
I2663
sS'becoming'
p1261
I1436
sS'6'
p1262
I609
sS'removes'
p1263
I3897
sS'landing'
p1264
I2664
sS'somehow'
p1265
I2634
sS'payable'
p1266
I3898
sS'heat'
p1267
I3899
sS'hear'
p1268
I3900
sS'syndicate'
p1269
I2666
sS'insider-trading'
p1270
I3902
sS'true'
p1271
I1439
sS'analyst'
p1272
I2667
sS'reset'
p1273
I1440
sS'Seagram'
p1274
I924
sS'counsel'
p1275
I3903
sS'high-quality'
p1276
I1441
sS'tack'
p1277
I4587
sS'Commission'
p1278
I1412
sS'spun'
p1279
I1937
sS'B.'
p1280
I2323
sS'attached'
p1281
I2670
sS'maximum'
p1282
I1442
sS'devices'
p1283
I269
sS'tell'
p1284
I2427
sS'County'
p1285
I270
sS'Engineering'
p1286
I271
sS'economic'
p1287
I2003
sS'S.p'
p1288
I2671
sS'}'
p1289
I1463
sS'unusually'
p1290
I1444
sS'reform'
p1291
I1621
sS'stages'
p1292
I2672
sS'enthusiastic'
p1293
I3476
sS'refillable'
p1294
I272
sS'<unk>'
p1295
I0
sS'150'
p1296
I273
sS'private-sector'
p1297
I1445
sS'proved'
p1298
I274
sS'156'
p1299
I275
sS'implications'
p1300
I1622
sS'Hudson'
p1301
I3905
sS'one-third'
p1302
I2675
sS'covers'
p1303
I2676
sS'evidence'
p1304
I1447
sS"''"
p1305
I277
sS'mostly'
p1306
I1600
sS'promised'
p1307
I1448
sS'request'
p1308
I3477
sS'Wathen'
p1309
I4661
sS'face'
p1310
I1021
sS'dealer'
p1311
I278
sS'negotiations'
p1312
I279
sS'Intel'
p1313
I4275
sS'Tashi'
p1314
I280
sS'1,000'
p1315
I3478
sS'weakened'
p1316
I1450
sS'floor'
p1317
I281
sS'stake'
p1318
I1451
sS'generally'
p1319
I2680
sS'topped'
p1320
I1452
sS'negotiators'
p1321
I1453
sS'composite'
p1322
I2428
sS'interested'
p1323
I1454
sS'role'
p1324
I282
sS'holding'
p1325
I1455
sS"M'Bow"
p1326
I3679
sS'test'
p1327
I1456
sS'developers'
p1328
I283
sS'roll'
p1329
I284
sS'realize'
p1330
I965
sS'picture'
p1331
I3917
sS'EST'
p1332
I3918
sS"'s"
p1333
I285
sS'get-together'
p1334
I286
sS'models'
p1335
I287
sS'why'
p1336
I2681
sS'Later'
p1337
I1457
sS'Wilmington'
p1338
I1458
sS'deficit-reduction'
p1339
I2374
sS'Trial'
p1340
I1459
sS"'d"
p1341
I288
sS'invested'
p1342
I289
sS'rising'
p1343
I4200
sS'scores'
p1344
I1460
sS'rolling'
p1345
I290
sS"'m"
p1346
I291
sS'Mass.'
p1347
I2685
sS'firms'
p1348
I900
sS'died'
p1349
I2686
sS'Lee'
p1350
I1413
sS'billion'
p1351
I2687
sS'younger'
p1352
I3920
sS'reorganization'
p1353
I293
sS'longer'
p1354
I3921
sS'Estate'
p1355
I1461
sS'excuse'
p1356
I1801
sS'assume'
p1357
I685
sS'T.'
p1358
I2052
sS'proposed'
p1359
I3843
sS'Charles'
p1360
I294
sS'affidavit'
p1361
I1464
sS'together'
p1362
I1465
sS'liquidity'
p1363
I451
sS'fastener'
p1364
I295
sS'warm'
p1365
I2430
sS'time'
p1366
I297
sS'push'
p1367
I298
sS'serious'
p1368
I4231
sS'debate'
p1369
I4625
sS'Moscow'
p1370
I2007
sS'profits'
p1371
I2690
sS'overdue'
p1372
I2691
sS'detective'
p1373
I4075
sS'Mayor'
p1374
I3589
sS'concept'
p1375
I1466
sS'managed'
p1376
I2692
sS'chain'
p1377
I299
sS'Indians'
p1378
I300
sS'alternatives'
p1379
I3925
sS'focus'
p1380
I3926
sS'deliveries'
p1381
I3927
sS'leads'
p1382
I3928
sS'manager'
p1383
I2693
sS'mile'
p1384
I2694
sS'battle'
p1385
I1470
sS'involved'
p1386
I909
sS'milk'
p1387
I2695
sS'Today'
p1388
I3930
sS'row'
p1389
I3931
sS'certainly'
p1390
I1471
sS'hold'
p1391
I301
sS'Columbia'
p1392
I3932
sS'757-200s'
p1393
I2697
sS'balloons'
p1394
I2313
sS'religion'
p1395
I817
sS'technique'
p1396
I2698
sS'Ridley'
p1397
I2700
sS'environment'
p1398
I3934
sS'company'
p1399
I614
sS'finally'
p1400
I2701
sS'compensate'
p1401
I1474
sS'Lighting'
p1402
I302
sS'marks'
p1403
I2702
sS'Atlanta'
p1404
I2703
sS'must'
p1405
I3682
sS'swap'
p1406
I2384
sS'eliminate'
p1407
I303
sS'1991'
p1408
I1199
sS'supported'
p1409
I3481
sS'string'
p1410
I2705
sS'prepaid'
p1411
I304
sS'revamping'
p1412
I305
sS'blase'
p1413
I1476
sS'confidence'
p1414
I922
sS'consolidation'
p1415
I306
sS'choice'
p1416
I307
sS'liability'
p1417
I1477
sS'automobiles'
p1418
I1478
sS'tanks'
p1419
I3939
sS'advised'
p1420
I2706
sS'10-year'
p1421
I1479
sS'word'
p1422
I821
sS'airing'
p1423
I440
sS'blast'
p1424
I1481
sS'Where'
p1425
I2708
sS'minute'
p1426
I308
sS'governments'
p1427
I2709
sS'Just'
p1428
I1484
sS'level'
p1429
I3941
sS'did'
p1430
I2711
sS'Ltd'
p1431
I1946
sS'Tax'
p1432
I309
sS'Intelogic'
p1433
I310
sS'magnet'
p1434
I2713
sS'third-largest'
p1435
I1855
sS'progress'
p1436
I3507
sS'team'
p1437
I312
sS'quick'
p1438
I3944
sS'speculation'
p1439
I314
sS'George'
p1440
I1486
sS'Systems'
p1441
I454
sS'Reich'
p1442
I3189
sS'prevent'
p1443
I315
sS'revolution'
p1444
I1487
sS'says'
p1445
I3946
sS'findings'
p1446
I316
sS'tougher'
p1447
I3947
sS'trend'
p1448
I3948
sS'plunged'
p1449
I63
sS'injunction'
p1450
I3949
sS'sign'
p1451
I317
sS'utility'
p1452
I2345
sS'cost'
p1453
I1488
sS'Northwest'
p1454
I3950
sS'takeoff'
p1455
I3951
sS'patient'
p1456
I3288
sS'Weyerhaeuser'
p1457
I2719
sS'targets'
p1458
I2720
sS'substitute'
p1459
I3952
sS'drinks'
p1460
I3953
sS'majors'
p1461
I2721
sS'Bert'
p1462
I1489
sS'Newsom'
p1463
I3954
sS'adds'
p1464
I2722
sS'appear'
p1465
I1490
sS'economist'
p1466
I1026
sS'shares'
p1467
I1491
sS'Ford'
p1468
I1492
sS'current'
p1469
I318
sS'goes'
p1470
I3956
sS'During'
p1471
I1493
sS'falling'
p1472
I319
sS'appeal'
p1473
I1494
sS'boost'
p1474
I320
sS'collateral'
p1475
I1495
sS'Bill'
p1476
I2724
sS'jury'
p1477
I321
sS'partners'
p1478
I2227
sS'genes'
p1479
I1497
sS'Bids'
p1480
I2726
sS'Aga'
p1481
I3958
sS'exceptions'
p1482
I2435
sS'slow'
p1483
I456
sS'baseball'
p1484
I3961
sS'groups'
p1485
I3962
sS'English'
p1486
I1498
sS'alone'
p1487
I324
sS'based'
p1488
I2228
sS'along'
p1489
I325
sS'refused'
p1490
I4482
sS'My'
p1491
I326
sS'appears'
p1492
I1499
sS'change'
p1493
I1500
sS'Warner'
p1494
I327
sS'passengers'
p1495
I328
sS'Dean'
p1496
I1502
sS'cuckoo'
p1497
I2730
sS'restrictive'
p1498
I3292
sS'brilliant'
p1499
I329
sS'Meanwhile'
p1500
I1029
sS'guilty'
p1501
I3964
sS'restructuring'
p1502
I1420
sS'trial'
p1503
I1503
sS'Associates'
p1504
I330
sS'suggestion'
p1505
I2731
sS'usually'
p1506
I1504
sS'history'
p1507
I1807
sS'studies'
p1508
I331
sS'Maine'
p1509
I3967
sS'confrontation'
p1510
I2642
sS'Canter'
p1511
I332
sS'tasks'
p1512
I333
sS'love'
p1513
I334
sS'Justice'
p1514
I3968
sS'lending'
p1515
I1506
sS'Pennzoil'
p1516
I2013
sS'prefer'
p1517
I335
sS'Brissette'
p1518
I3969
sS'licensing'
p1519
I2000
sS'fake'
p1520
I336
sS'rarely'
p1521
I1507
sS'pitchers'
p1522
I2014
sS'market'
p1523
I1508
sS'everybody'
p1524
I2009
sS'Greenery'
p1525
I3970
sS'Australia'
p1526
I2737
sS'spouses'
p1527
I2401
sS'working'
p1528
I338
sS'prove'
p1529
I1510
sS'wicker'
p1530
I339
sS'give'
p1531
I2436
sS'visit'
p1532
I2739
sS'third-quarter'
p1533
I3972
sS'by'
p1534
I823
sS'insider'
p1535
I2024
sS'2645.08'
p1536
I340
sS'jam'
p1537
I1512
sS'opposed'
p1538
I341
sS'memory'
p1539
I3975
sS'scope'
p1540
I342
sS'Those'
p1541
I343
sS'``'
p1542
I344
sS'October'
p1543
I3977
sS'continue'
p1544
I247
sS'club'
p1545
I1513
sS'minimum-wage'
p1546
I1514
sS'Mount'
p1547
I1515
sS'Public'
p1548
I2226
sS'refrain'
p1549
I345
sS'clue'
p1550
I1516
sS'Barr'
p1551
I346
sS'rigid'
p1552
I2741
sS'Time'
p1553
I3979
sS'cases'
p1554
I3980
sS'effort'
p1555
I2742
sS'behalf'
p1556
I347
sS'fly'
p1557
I2743
sS'involve'
p1558
I2438
sS'valued'
p1559
I349
sS'currency'
p1560
I350
sS'German'
p1561
I3981
sS'thousands'
p1562
I3982
sS'originally'
p1563
I351
sS'cap'
p1564
I1519
sS'genetic'
p1565
I1071
sS'Kume'
p1566
I3056
sS'Pacific'
p1567
I2744
sS'believes'
p1568
I352
sS'printing'
p1569
I353
sS'values'
p1570
I354
sS'can'
p1571
I1520
sS'believed'
p1572
I355
sS'Our'
p1573
I356
sS'newspapers'
p1574
I1423
sS'most'
p1575
I3160
sS'spy'
p1576
I1521
sS'want'
p1577
I68
sS'figure'
p1578
I3984
sS'Federal'
p1579
I358
sS'expanding'
p1580
I1522
sS'chip'
p1581
I1523
sS'restaurants'
p1582
I3200
sS'topic'
p1583
I1524
sS'spending'
p1584
I834
sS'critic'
p1585
I3985
sS'performed'
p1586
I820
sS'allowed'
p1587
I359
sS'occur'
p1588
I1526
sS'gimmickry'
p1589
I360
sS'parliamentary'
p1590
I3988
sS'requirements'
p1591
I3989
sS'Dataproducts'
p1592
I1528
sS'discussion'
p1593
I1529
sS'watching'
p1594
I4662
sS'write'
p1595
I1530
sS'actual'
p1596
I3584
sS'fourth'
p1597
I3991
sS'Louis'
p1598
I4082
sS'Including'
p1599
I2645
sS'subsidiaries'
p1600
I4601
sS'sworn'
p1601
I2751
sS'Why'
p1602
I362
sS'five-year'
p1603
I363
sS'!'
p1604
I3061
sS'product'
p1605
I1532
sS'145'
p1606
I2752
sS'building'
p1607
I1754
sS'huge'
p1608
I627
sS'may'
p1609
I2753
sS'Average'
p1610
I3993
sS'sour'
p1611
I2745
sS'spot'
p1612
I364
sS'membership'
p1613
I2755
sS'produce'
p1614
I1534
sS'designed'
p1615
I2756
sS'Lufkin'
p1616
I3995
sS'date'
p1617
I365
sS'such'
p1618
I366
sS'truly'
p1619
I1636
sS'data'
p1620
I367
sS'grow'
p1621
I2758
sS'man'
p1622
I2759
sS'Still'
p1623
I3996
sS'natural'
p1624
I368
sS'remember'
p1625
I1537
sS'sectors'
p1626
I369
sS'maybe'
p1627
I2201
sS'futures'
p1628
I1539
sS'borrowing'
p1629
I2761
sS'tale'
p1630
I2762
sS'subminimum'
p1631
I3066
sS'criminal'
p1632
I3416
sS'ones'
p1633
I4663
sS'so'
p1634
I370
sS'basket'
p1635
I2763
sS'pollution'
p1636
I3297
sS'pulled'
p1637
I371
sS'talk'
p1638
I2764
sS'exclusive'
p1639
I1006
sS'hoped'
p1640
I3307
sS'serving'
p1641
I1541
sS'Series'
p1642
I2760
sS'nerve'
p1643
I1482
sS'mainly'
p1644
I4000
sS'raised'
p1645
I1542
sS'years'
p1646
I372
sS'stability'
p1647
I2767
sS'hiring'
p1648
I2246
sS'Genetic'
p1649
I1544
sS'cuts'
p1650
I2768
sS'argued'
p1651
I2769
sS'managers'
p1652
I2649
sS'cold'
p1653
I1545
sS'still'
p1654
I1546
sS'stock-index'
p1655
I4002
sS'Shaw'
p1656
I829
sS'Accord'
p1657
I4003
sS'overhaul'
p1658
I374
sS'courthouse'
p1659
I4004
sS'interesting'
p1660
I2772
sS'Lehman'
p1661
I1941
sS'troubles'
p1662
I377
sS'repertoire'
p1663
I3230
sS'window'
p1664
I1548
sS'offers'
p1665
I4005
sS'listing'
p1666
I2773
sS'policy'
p1667
I2774
sS'mail'
p1668
I2775
sS'troubled'
p1669
I379
sS'decades'
p1670
I380
sS'into'
p1671
I830
sS'happened'
p1672
I4007
sS'TCMP'
p1673
I381
sS'finance'
p1674
I2777
sS'thereby'
p1675
I382
sS'views'
p1676
I2778
sS'impulses'
p1677
I2779
sS'100,000'
p1678
I1549
sS'sweetened'
p1679
I1550
sS'undisclosed'
p1680
I2780
sS'introduce'
p1681
I1551
sS'nation'
p1682
I383
sS'records'
p1683
I384
sS'Because'
p1684
I1039
sS'compelled'
p1685
I385
sS'Kemp'
p1686
I386
sS'not'
p1687
I1553
sS'R.'
p1688
I1555
sS'now'
p1689
I1556
sS'provision'
p1690
I1557
sS'discuss'
p1691
I1558
sS'nor'
p1692
I1559
sS'down'
p1693
I2652
sS'term'
p1694
I4008
sS'attorneys'
p1695
I2781
sS'name'
p1696
I4009
sS'Their'
p1697
I2023
sS'resignation'
p1698
I2782
sS'drop'
p1699
I1560
sS'imports'
p1700
I4345
sS'gain'
p1701
I2354
sS'Stanley'
p1702
I388
sS'entirely'
p1703
I1561
sS'quarter'
p1704
I389
sS'Milk'
p1705
I3776
sS'Bros.'
p1706
I4010
sS'A'
p1707
I76
sS'weighted'
p1708
I4011
sS'significantly'
p1709
I4773
sS'Holdings'
p1710
I2784
sS'Gonzalez'
p1711
I2143
sS'revised'
p1712
I390
sS'plant'
p1713
I630
sS'challenges'
p1714
I1564
sS'begun'
p1715
I4012
sS'year'
p1716
I1565
sS'worried'
p1717
I466
sS'pills'
p1718
I1567
sS'Carolina'
p1719
I1376
sS'hacker'
p1720
I4014
sS'living'
p1721
I2785
sS'shown'
p1722
I1569
sS'accomplish'
p1723
I1570
sS'container'
p1724
I391
sS'opened'
p1725
I1571
sS'bullish'
p1726
I1572
sS'space'
p1727
I1573
sS'profit'
p1728
I4017
sS'Michigan'
p1729
I392
sS'factory'
p1730
I4018
sS'increase'
p1731
I1574
sS'mess'
p1732
I3697
sS'seriously'
p1733
I393
sS'bailout'
p1734
I2788
sS'suggesting'
p1735
I395
sS'EG&G'
p1736
I2789
sS'correct'
p1737
I2790
sS'shows'
p1738
I1576
sS'Commerce'
p1739
I2792
sS'earlier'
p1740
I2793
sS'allegation'
p1741
I1043
sS'Rights'
p1742
I2794
sS'cars'
p1743
I1578
sS'million'
p1744
I397
sS'possibility'
p1745
I398
sS'economy'
p1746
I1531
sS'Castro'
p1747
I2445
sS'plea'
p1748
I399
sS'repurchase'
p1749
I1579
sS'Security'
p1750
I4021
sS'remainder'
p1751
I400
sS'care'
p1752
I1581
sS'advance'
p1753
I2796
sS'Tiananmen'
p1754
I2429
sS'Already'
p1755
I2797
sS'where'
p1756
I467
sS'merger'
p1757
I3180
sS'vehemently'
p1758
I1583
sS'replacement'
p1759
I1095
sS'motion'
p1760
I4022
sS'thing'
p1761
I2798
sS'fellow'
p1762
I3526
sS'plane'
p1763
I632
sS'place'
p1764
I4024
sS'Brantford'
p1765
I2654
sS'invitation'
p1766
I1584
sS'routes'
p1767
I404
sS'economic-forecasting'
p1768
I2799
sS'promotion'
p1769
I1586
sS'Gnu-Emacs'
p1770
I2248
sS'discontinued'
p1771
I4025
sS'frequent'
p1772
I2801
sS'first'
p1773
I2802
sS'Even'
p1774
I1587
sS'Rated'
p1775
I88
sS'revenue'
p1776
I4026
sS'spoken'
p1777
I407
sS'clause'
p1778
I2466
sS'There'
p1779
I1589
sS'Asia'
p1780
I1590
sS'yourself'
p1781
I95
sS'Graeme'
p1782
I2803
sS'soaring'
p1783
I4028
sS'Krebs'
p1784
I2479
sS'Backer'
p1785
I2656
sS'suspended'
p1786
I2805
sS'carry'
p1787
I2806
sS'corporations'
p1788
I2807
sS'array'
p1789
I4029
sS'drove'
p1790
I1593
sS'open'
p1791
I411
sS'tomorrow'
p1792
I1594
sS'millions'
p1793
I4030
sS'city'
p1794
I412
sS'Levy'
p1795
I3350
sS'others'
p1796
I3365
sS'sheet'
p1797
I1596
sS'district'
p1798
I4032
sS'J.P.'
p1799
I2810
sS'structured'
p1800
I414
sS'Commercial'
p1801
I4034
sS'1.50'
p1802
I3302
sS'Dow'
p1803
I3072
sS'stimulation'
p1804
I4036
sS'indicate'
p1805
I415
sS'returns'
p1806
I4037
sS'2'
p1807
I416
sS'SEC'
p1808
I4038
sS'convention'
p1809
I4039
sS'Cult'
p1810
I4040
sS'Such'
p1811
I4041
sS'white'
p1812
I4042
sS'Data'
p1813
I4043
sS'friend'
p1814
I1599
sS'editor'
p1815
I2657
sS'exploring'
p1816
I4045
sS'mining'
p1817
I2520
sS'fraction'
p1818
I2658
sS'allegedly'
p1819
I2813
sS'that'
p1820
I1601
sS'season'
p1821
I4048
sS'Hispanic'
p1822
I146
sS'criticize'
p1823
I1816
sS'hope'
p1824
I1034
sS'packet'
p1825
I1047
sS'specialists'
p1826
I419
sS'clients'
p1827
I935
sS'surged'
p1828
I2539
sS'than'
p1829
I1603
sS'specify'
p1830
I4051
sS'11'
p1831
I2814
sS'wide'
p1832
I4052
sS'13'
p1833
I2816
sS'12'
p1834
I2817
sS'15'
p1835
I2818
sS'unfortunately'
p1836
I4053
sS'17'
p1837
I2820
sS'16'
p1838
I2821
sS'19'
p1839
I2822
sS'18'
p1840
I2823
sS'require'
p1841
I4054
sS'diplomatic'
p1842
I4055
sS'transferred'
p1843
I1607
sS'spokeswoman'
p1844
I4056
sS'future'
p1845
I423
sS'glossy'
p1846
I424
sS'venture'
p1847
I2824
sS'were'
p1848
I2825
sS'cards'
p1849
I4058
sS'Orkem'
p1850
I1608
sS'subcommittee'
p1851
I1049
sS'and'
p1852
I4059
sS'62.875'
p1853
I2659
sS'Kuehn'
p1854
I2826
sS'Court'
p1855
I2827
sS'armored'
p1856
I4060
sS'investors'
p1857
I1609
sS'remained'
p1858
I1610
sS'NATO'
p1859
I927
sS'premier'
p1860
I1611
sS'turned'
p1861
I425
sS'argument'
p1862
I426
sS'headquarters'
p1863
I427
sS'already'
p1864
I3735
sS'say'
p1865
I428
sS'conspiracy'
p1866
I2828
sS'Inquiry'
p1867
I429
sS'rent'
p1868
I4061
sS'anger'
p1869
I1612
sS'DNA'
p1870
I2660
sS'sells'
p1871
I4062
sS'recover'
p1872
I1613
sS'saw'
p1873
I430
sS'any'
p1874
I4064
sS'sat'
p1875
I431
sS'Do'
p1876
I2832
sS'offering'
p1877
I2661
sS'fashionable'
p1878
I432
sS'veteran'
p1879
I1615
sS'Murphy'
p1880
I2617
sS'ideas'
p1881
I4065
sS'note'
p1882
I434
sS'equipment'
p1883
I1616
sS'ideal'
p1884
I4066
sS'potential'
p1885
I2833
sS'take'
p1886
I435
sS'attempted'
p1887
I3896
sS'performance'
p1888
I2834
sS'Leemans'
p1889
I437
sS'Du'
p1890
I2835
sS'high-technology'
p1891
I438
sS'registered'
p1892
I2031
sS'channel'
p1893
I2836
sS'200'
p1894
I2837
sS'begin'
p1895
I1617
sS'SUNY'
p1896
I1618
sS'multiple'
p1897
I4068
sS'opposite'
p1898
I439
sS'track'
p1899
I2839
sS'price'
p1900
I1619
sS'enter'
p1901
I3704
sS'TV'
p1902
I2931
sS'paid'
p1903
I2841
sS'specialty'
p1904
I2033
sS'Separately'
p1905
I2643
sS'near-term'
p1906
I1068
sS'Gandhi'
p1907
I4069
sS'remarks'
p1908
I441
sS'cleared'
p1909
I4070
sS'inserted'
p1910
I442
sS'GOP'
p1911
I4071
sS'involving'
p1912
I1301
sS'D.'
p1913
I2842
sS'Trust'
p1914
I2843
sS'especially'
p1915
I2844
sS'surprising'
p1916
I2845
sS'failure'
p1917
I2665
sS'considered'
p1918
I4072
sS'average'
p1919
I445
sS'later'
p1920
I3376
sS'Chez'
p1921
I447
sS'hungry'
p1922
I4073
sS'playing'
p1923
I3073
sS'federal'
p1924
I449
sS'stock-market'
p1925
I1986
sS'refining'
p1926
I450
sS'jumped'
p1927
I469
sS'Accounting'
p1928
I2847
sS'senior'
p1929
I4074
sS'50.875'
p1930
I638
sS'typically'
p1931
I1624
sS'filing'
p1932
I1625
sS'laws'
p1933
I452
sS'shop'
p1934
I2848
sS'rating'
p1935
I2849
sS'Northeast'
p1936
I1627
sS'surplus'
p1937
I453
sS'3.75'
p1938
I1628
sS'heredity'
p1939
I4182
sS'allegations'
p1940
I4076
sS'contemporary'
p1941
I2851
sS'Research'
p1942
I4077
sS'discovered'
p1943
I1629
sS'Switzerland'
p1944
I2035
sS'steelmakers'
p1945
I1869
sS'Stephen'
p1946
I2852
sS'Bundesbank'
p1947
I4078
sS'aggressive'
p1948
I455
sS'label'
p1949
I2853
sS'ground'
p1950
I1630
sS'Mikhail'
p1951
I1643
sS'We'
p1952
I2854
sS'upgrade'
p1953
I1631
sS'Worse'
p1954
I1632
sS'Banxquote'
p1955
I625
sS'title'
p1956
I1633
sS'Kansas'
p1957
I1634
sS'Berlin'
p1958
I1644
sS'crime'
p1959
I4081
sS'only'
p1960
I1635
sS'going'
p1961
I458
sS'black'
p1962
I2856
sS'Sox'
p1963
I785
sS'Services'
p1964
I2857
sS'Housing'
p1965
I459
sS'congressional'
p1966
I460
sS'dispute'
p1967
I461
sS'ranking'
p1968
I2858
sS'over'
p1969
I3705
sS'non-invasive'
p1970
I2153
sS'stay'
p1971
I2373
sS'get'
p1972
I2859
sS'contracts'
p1973
I2860
sS'assistant'
p1974
I462
sS'jazz'
p1975
I4083
sS'RISC'
p1976
I2861
sS'employers'
p1977
I2862
sS'affecting'
p1978
I472
sS'hailed'
p1979
I2864
sS'nearly'
p1980
I2865
sS'BNL'
p1981
I2866
sS'Richard'
p1982
I2204
sS'recombinant'
p1983
I463
sS'neither'
p1984
I2258
sS'comment'
p1985
I3515
sS'secondary'
p1986
I2867
sS'prime'
p1987
I464
sS'Filipinos'
p1988
I2868
sS'W.'
p1989
I2869
sS'seldom'
p1990
I1637
sS'versions'
p1991
I4084
sS'borrow'
p1992
I465
sS'yield'
p1993
I2870
sS'morning'
p1994
I2871
sS'miles'
p1995
I2872
sS'losers'
p1996
I1638
sS'predicted'
p1997
I4086
sS'forces'
p1998
I1295
sS'At'
p1999
I2062
sS'discussing'
p2000
I4087
sS'administration'
p2001
I1825
sS'declared'
p2002
I2873
sS'concert'
p2003
I1639
sS'encourages'
p2004
I4088
sS'bids'
p2005
I3904
sS'whitewash'
p2006
I418
sS'ends'
p2007
I1055
sS'seat'
p2008
I2875
sS'elected'
p2009
I1641
sS'college'
p2010
I4089
sS'slashing'
p2011
I4090
sS'Neave'
p2012
I2876
sS'Manufacturers'
p2013
I2877
sS'surgery'
p2014
I2831
sS'concern'
p2015
I1642
sS'retire'
p2016
I2535
sS'Church'
p2017
I468
sS'Shopping'
p2018
I4091
sS'Johnson'
p2019
I1647
sS'mortgage'
p2020
I4092
sS'That'
p2021
I2846
sS'ways'
p2022
I3590
sS'subsequent'
p2023
I4095
sS'review'
p2024
I4096
sS'representatives'
p2025
I470
sS'repeal'
p2026
I1151
sS'forecast'
p2027
I2881
sS'weapons'
p2028
I4098
sS'single-A-3'
p2029
I1056
sS'outside'
p2030
I4099
sS'Mather'
p2031
I471
sS'Members'
p2032
I1645
sS'between'
p2033
I1646
sS'Baja'
p2034
I2863
sS'cautiously'
p2035
I2036
sS'Mitsubishi'
p2036
I473
sS'across'
p2037
I2883
sS'toying'
p2038
I4100
sS'gives'
p2039
I4044
sS'infrastructure'
p2040
I2884
sS'jobs'
p2041
I474
sS'FOR'
p2042
I2880
sS'U.S.'
p2043
I4101
sS'apiece'
p2044
I853
sS'26'
p2045
I3079
sS'rapidly'
p2046
I646
sS'Securities'
p2047
I475
sS'10.2'
p2048
I2461
sS'diners'
p2049
I4102
sS'Each'
p2050
I2886
sS'article'
p2051
I1648
sS'spark'
p2052
I477
sS'cities'
p2053
I4103
sS'come'
p2054
I4104
sS'reaction'
p2055
I4105
sS'dates'
p2056
I2887
sS'acquiring'
p2057
I4106
sS'missions'
p2058
I4107
sS'many'
p2059
I478
sS'trader'
p2060
I2889
sS'trades'
p2061
I2890
sS'according'
p2062
I2891
sS'contract'
p2063
I4109
sS'officer'
p2064
I3868
sS'personal'
p2065
I2462
sS'concentrate'
p2066
I476
sS'Wall'
p2067
I3611
sS'Laboratory'
p2068
I2892
sS'holders'
p2069
I2893
sS'traded'
p2070
I2894
sS'Investment'
p2071
I4111
sS'comes'
p2072
I1652
sS'nearby'
p2073
I1653
sS'affairs'
p2074
I776
sS'provoked'
p2075
I3469
sS'Mortgage'
p2076
I479
sS'passenger'
p2077
I1654
sS'color'
p2078
I4112
sS'Pictures'
p2079
I1655
sS'hybrids'
p2080
I1656
sS'Nekoosa'
p2081
I2267
sS'jeans'
p2082
I1657
sS'promises'
p2083
I4113
sS'pop'
p2084
I519
sS'expectations'
p2085
I3707
sS'60'
p2086
I521
sS'61'
p2087
I4115
sS'maintained'
p2088
I2896
sS'grants'
p2089
I2897
sS'Jahn'
p2090
I4117
sS'learning'
p2091
I1659
sS'67'
p2092
I4369
sS'68'
p2093
I4119
sS'constant'
p2094
I3318
sS'bizarre'
p2095
I525
sS'Horton'
p2096
I480
sS'Leader'
p2097
I1660
sS'considering'
p2098
I2898
sS'sprays'
p2099
I2465
sS'unusual'
p2100
I2899
sS'Calif.'
p2101
I2900
sS'conventional-arms'
p2102
I2223
sS'Electric'
p2103
I4122
sS'P.'
p2104
I1060
sS'recognize'
p2105
I1136
sS'But'
p2106
I4123
sS'coupe'
p2107
I4124
sS'defined'
p2108
I856
sS'Healthcare'
p2109
I1127
sS'Lynch'
p2110
I482
sS'motives'
p2111
I483
sS'Nuclear'
p2112
I2673
sS'technical'
p2113
I763
sS'hardly'
p2114
I4125
sS'estimated'
p2115
I2106
sS'500'
p2116
I4126
sS'disclosed'
p2117
I1833
sS'wants'
p2118
I484
sS'BankAmerica'
p2119
I485
sS'direction'
p2120
I4128
sS'enable'
p2121
I486
sS'shopping'
p2122
I2901
sS'gray'
p2123
I2243
sS'influence'
p2124
I858
sS'offered'
p2125
I2902
sS'formed'
p2126
I487
sS'Deseret'
p2127
I4130
sS'centerpiece'
p2128
I488
sS'dramatic'
p2129
I2903
sS'wake'
p2130
I2904
sS'suspicions'
p2131
I3906
sS'stems'
p2132
I1664
sS'suspected'
p2133
I1665
sS'former'
p2134
I490
sS'those'
p2135
I2905
sS'pilot'
p2136
I4132
sS'paying'
p2137
I581
sS'per-capita'
p2138
I3907
sS'myself'
p2139
I4134
sS'MORTGAGE'
p2140
I491
sS'developing'
p2141
I1666
sS'these'
p2142
I1667
sS'consultant'
p2143
I492
sS'Reagan'
p2144
I1668
sS'cash'
p2145
I4135
sS"n't"
p2146
I2907
sS'Edward'
p2147
I2041
sS'ally'
p2148
I648
sS'policies'
p2149
I494
sS'newspaper'
p2150
I495
sS'Laurel'
p2151
I4136
sS'Order'
p2152
I3549
sS'Moody'
p2153
I1836
sS'sorghum'
p2154
I1669
sS'region'
p2155
I4108
sS'exercisable'
p2156
I1670
sS'operate'
p2157
I2457
sS'managing'
p2158
I4094
sS'conferences'
p2159
I2910
sS'eventually'
p2160
I2911
sS'soil'
p2161
I1671
sS'Democratic'
p2162
I1000
sS'health-care'
p2163
I1672
sS'engaged'
p2164
I497
sS'coffee'
p2165
I2912
sS'Peters'
p2166
I3045
sS'refinery'
p2167
I4138
sS'increased'
p2168
I1090
sS'evening'
p2169
I1837
sS'drug'
p2170
I1063
sS'Bar'
p2171
I3089
sS'13.5'
p2172
I498
sS'technology'
p2173
I499
sS'worry'
p2174
I1673
sS'13.1'
p2175
I500
sS'bags'
p2176
I2913
sS'par'
p2177
I4505
sS'dragging'
p2178
I501
sS'develop'
p2179
I1675
sS'handled'
p2180
I3971
sS'media'
p2181
I1676
sS'granted'
p2182
I4139
sS'negotiating'
p2183
I3752
sS'same'
p2184
I2916
sS'check'
p2185
I4140
sS'Freddie'
p2186
I502
sS'inquiry'
p2187
I1677
sS'550,000'
p2188
I503
sS'When'
p2189
I2736
sS'a.m.'
p2190
I2275
sS'cotton'
p2191
I2042
sS'bring'
p2192
I1024
sS'events'
p2193
I4142
sS'status'
p2194
I654
sS'oil'
p2195
I2918
sS'edged'
p2196
I504
sS'Salvador'
p2197
I2919
sS'abandoned'
p2198
I4256
sS'I'
p2199
I505
sS'boosted'
p2200
I506
sS'refusal'
p2201
I4145
sS'Toyota'
p2202
I664
sS'Rockefeller'
p2203
I4146
sS'companion'
p2204
I2920
sS'producers'
p2205
I4147
sS'statutory'
p2206
I671
sS'driven'
p2207
I668
sS'delicate'
p2208
I4149
sS'intended'
p2209
I631
sS'Banks'
p2210
I4150
sS'climbing'
p2211
I2923
sS'totally'
p2212
I2924
sS'complained'
p2213
I1679
sS'drain'
p2214
I2925
sS'ballooning'
p2215
I2704
sS'academics'
p2216
I2471
sS'charges'
p2217
I1680
sS'sales'
p2218
I1745
sS'Renk'
p2219
I2927
sS'no'
p2220
I3910
sS'Motors'
p2221
I2928
sS'roughly'
p2222
I2929
sS'mortgages'
p2223
I2930
sS'Rep.'
p2224
I1682
sS'severe'
p2225
I1683
sS'costs'
p2226
I508
sS'relief'
p2227
I4155
sS'components'
p2228
I4156
sS'In'
p2229
I4157
sS'researchers'
p2230
I4158
sS'If'
p2231
I4159
sS'summer'
p2232
I509
sS'Ruffo'
p2233
I2679
sS'Service'
p2234
I1685
sS'among'
p2235
I2895
sS'Ways'
p2236
I2933
sS'formula'
p2237
I396
sS'adjustments'
p2238
I2935
sS'superconductors'
p2239
I1686
sS'Minn.'
p2240
I1687
sS'Pine'
p2241
I4161
sS'Conservative'
p2242
I3191
sS'communities'
p2243
I4309
sS'violent'
p2244
I4162
sS'kill'
p2245
I4163
sS'So'
p2246
I1802
sS'touch'
p2247
I1690
sS'Markets'
p2248
I513
sS'Sterling'
p2249
I1692
sS'announcement'
p2250
I4165
sS'renewed'
p2251
I1693
sS'thinking'
p2252
I1694
sS'tourism'
p2253
I3712
sS'seems'
p2254
I4167
sS'politicians'
p2255
I2046
sS'Weekes'
p2256
I2936
sS'nominees'
p2257
I1053
sS'1.8200'
p2258
I4168
sS'setting'
p2259
I3913
sS'bloc'
p2260
I4169
sS'treatment'
p2261
I1695
sS'Although'
p2262
I2938
sS'Wash.'
p2263
I2047
sS'struck'
p2264
I756
sS'disrupt'
p2265
I4170
sS'pill'
p2266
I2939
sS'real'
p2267
I1697
sS'drink'
p2268
I1075
sS'aspects'
p2269
I514
sS'around'
p2270
I515
sS'last'
p2271
I737
sS'read'
p2272
I772
sS'Many'
p2273
I4174
sS'papers'
p2274
I3915
sS'period'
p2275
I517
sS'Project'
p2276
I782
sS'inflation'
p2277
I4177
sS'traffic'
p2278
I518
sS'pages'
p2279
I443
sS'listening'
p2280
I1700
sS'credentials'
p2281
I2940
sS'railroad'
p2282
I2941
sS'execution'
p2283
I1702
sS'disappointed'
p2284
I2942
sS'U.N.'
p2285
I4179
sS'furniture'
p2286
I4180
sS'Shop'
p2287
I1705
sS'standstill'
p2288
I803
sS'pounds'
p2289
I1706
sS'62'
p2290
I4116
sS'serves'
p2291
I2943
sS'subordinated'
p2292
I387
sS'annually'
p2293
I1707
sS'chamber'
p2294
I2945
sS'benefit'
p2295
I1708
sS'superiority'
p2296
I522
sS'either'
p2297
I2948
sS'retailers'
p2298
I2949
sS'Suns'
p2299
I1709
sS'output'
p2300
I1710
sS'downward'
p2301
I1046
sS'reduced'
p2302
I4183
sS'insured'
p2303
I2221
sS'65'
p2304
I523
sS'Jewelry'
p2305
I2951
sS'Entertainment'
p2306
I2952
sS'West'
p2307
I1135
sS'Since'
p2308
I4185
sS'draw'
p2309
I2049
sS'Mark'
p2310
I1712
sS'depressed'
p2311
I421
sS'Kimberly-Clark'
p2312
I2699
sS'images'
p2313
I2954
sS'New'
p2314
I2955
sS'Net'
p2315
I2956
sS'intact'
p2316
I861
sS'matching'
p2317
I2957
sS'Vienna'
p2318
I526
sS'gross'
p2319
I2958
sS'swaps'
p2320
I865
sS'two-year'
p2321
I4120
sS'tube'
p2322
I3340
sS'Earlier'
p2323
I1713
sS'recorded'
p2324
I1714
sS'legal'
p2325
I4189
sS'QVC'
p2326
I877
sS'toad'
p2327
I3919
sS'dealership'
p2328
I1716
sS'On'
p2329
I2239
sS'deficit'
p2330
I1717
sS'provides'
p2331
I4190
sS'provider'
p2332
I4191
sS'affiliate'
p2333
I3716
sS'moderate'
p2334
I1883
sS'Projects'
p2335
I527
sS'Chapter'
p2336
I2960
sS'specializing'
p2337
I2961
sS'felt'
p2338
I2682
sS'assembly'
p2339
I1719
sS'scientific'
p2340
I528
sS'power'
p2341
I529
sS'retains'
p2342
I530
sS'equivalent'
p2343
I901
sS'broker'
p2344
I2964
sS'notably'
p2345
I2965
sS'meets'
p2346
I2603
sS'leadership'
p2347
I531
sS'found'
p2348
I652
sS'containerboard'
p2349
I1721
sS'exciting'
p2350
I1722
sS'7.96'
p2351
I1245
sS'released'
p2352
I4049
sS'executives'
p2353
I532
sS'Goya'
p2354
I4192
sS'on'
p2355
I4193
sS'conducting'
p2356
I2967
sS'central'
p2357
I1723
sS'S.A.'
p2358
I1724
sS'Revenue'
p2359
I2968
sS'of'
p2360
I4194
sS'industry'
p2361
I533
sS'favorite'
p2362
I534
sS'drag'
p2363
I2053
sS'side'
p2364
I2481
sS'fell'
p2365
I2683
sS'stand'
p2366
I4196
sS'Chevron'
p2367
I1725
sS'act'
p2368
I535
sS'mixed'
p2369
I2972
sS'bond'
p2370
I2482
sS'or'
p2371
I4197
sS'road'
p2372
I2973
sS'tape'
p2373
I1031
sS'Information'
p2374
I2203
sS'8.50'
p2375
I1727
sS'outlook'
p2376
I956
sS'8.55'
p2377
I959
sS'No'
p2378
I537
sS'coupon'
p2379
I2974
sS'instruments'
p2380
I4198
sS'image'
p2381
I538
sS'signing'
p2382
I3720
sS'authorities'
p2383
I2684
sS'involvement'
p2384
I1729
sS'determine'
p2385
I972
sS'operator'
p2386
I1730
sS'valuable'
p2387
I1688
sS'your'
p2388
I1731
sS'Lease'
p2389
I539
sS'fast'
p2390
I2804
sS'Moon'
p2391
I3008
sS'her'
p2392
I540
sS'Though'
p2393
I2976
sS'strictly'
p2394
I4202
sS'there'
p2395
I4203
sS'styling'
p2396
I2977
sS'strict'
p2397
I4205
sS'Infiniti'
p2398
I4206
sS'low'
p2399
I1735
sS'sealed'
p2400
I541
sS'alleges'
p2401
I4207
sS'fastball'
p2402
I1003
sS'combined'
p2403
I2978
sS'revamped'
p2404
I2055
sS'complete'
p2405
I543
sS'enough'
p2406
I2882
sS'signs'
p2407
I643
sS'Vosges'
p2408
I545
sS'pleased'
p2409
I4655
sS'delayed'
p2410
I1737
sS'principles'
p2411
I2483
sS'brain'
p2412
I4665
sS'Broberg'
p2413
I4294
sS'elimination'
p2414
I547
sS'technologies'
p2415
I548
sS'trying'
p2416
I1738
sS'with'
p2417
I549
sg70
I2464
sS'buying'
p2418
I550
sS'pull'
p2419
I551
sS'hire'
p2420
I1739
sS'fraud'
p2421
I1740
sS'arranged'
p2422
I2982
sS'co-chief'
p2423
I2983
sS'default'
p2424
I1041
sS'House'
p2425
I552
sS'5/8'
p2426
I1741
sS'Bull'
p2427
I2333
sS'Plant'
p2428
I2914
sS'Marston'
p2429
I1742
sS'Eddie'
p2430
I2984
sS'politically'
p2431
I553
sS'advantage'
p2432
I3938
sS'agree'
p2433
I554
sS'detailed'
p2434
I555
sS'gone'
p2435
I556
sS'required'
p2436
I2058
sS'Guber'
p2437
I2981
sS'ad'
p2438
I557
sS'Alamos'
p2439
I2985
sS'totaling'
p2440
I4213
sS'moved'
p2441
I1744
sS'Airlines'
p2442
I560
sS'watches'
p2443
I561
sS'an'
p2444
I562
sS'alarm'
p2445
I854
sS'as'
p2446
I563
sS'Moonies'
p2447
I3522
sS'daily'
p2448
I2688
sS'file'
p2449
I2990
sS'advertisers'
p2450
I657
sS'99.1875'
p2451
I4214
sS'politics'
p2452
I4215
sS'himself'
p2453
I2030
sS'moves'
p2454
I1746
sS'operation'
p2455
I658
sS'fill'
p2456
I2991
sS'4.5'
p2457
I4217
sS'again'
p2458
I2992
sS'4.7'
p2459
I1077
sS'Jake'
p2460
I1748
sS'receive'
p2461
I908
sS'4.3'
p2462
I4220
sS'4.2'
p2463
I4221
sS'personnel'
p2464
I2993
sS'hybrid'
p2465
I2994
sS'Second'
p2466
I2689
sS'abolish'
p2467
I567
sS'field'
p2468
I2996
sS'narrowing'
p2469
I4223
sS'KGB'
p2470
I2027
sS'Atlantic'
p2471
I568
sS'Drilling'
p2472
I2997
sS'rioting'
p2473
I1072
sS'Stamford'
p2474
I871
sS'you'
p2475
I1749
sS'Law'
p2476
I1093
sS'Johnstown'
p2477
I4227
sS'poor'
p2478
I1751
sS'Great'
p2479
I1752
sS'blessing'
p2480
I4129
sS'Alex'
p2481
I569
sS'separate'
p2482
I4229
sS'12.4'
p2483
I2874
sS'Employees'
p2484
I3578
sS'Paramount'
p2485
I3064
sS'reached'
p2486
I570
sS'attributed'
p2487
I3513
sS'includes'
p2488
I4230
sS'8.04'
p2489
I3768
sS'important'
p2490
I2999
sS'accounts'
p2491
I971
sS'brands'
p2492
I3000
sS'creditor'
p2493
I2922
sS'stocks'
p2494
I4234
sS'fiscal'
p2495
I1124
sS'observers'
p2496
I1663
sS'Major'
p2497
I3002
sS'US$'
p2498
I3003
sS'Mexican'
p2499
I1755
sS'arsenals'
p2500
I4235
sS'calls'
p2501
I4236
sS'refinanced'
p2502
I4237
sS'Tropics'
p2503
I1756
sS'tricks'
p2504
I572
sS'principal'
p2505
I1028
sS'posts'
p2506
I3942
sS'directors'
p2507
I4239
sS'Street'
p2508
I573
sS'Year'
p2509
I3005
sS'overseas'
p2510
I1757
sS'Warsaw'
p2511
I2067
sS'neurosurgeon'
p2512
I2830
sS'wastewater'
p2513
I574
sS'Analysts'
p2514
I489
sS'Canada'
p2515
I1332
sS'all'
p2516
I1161
sS'since'
p2517
I1857
sS'9/16'
p2518
I3633
sS'founder'
p2519
I3006
sS'caused'
p2520
I577
sS'Workers'
p2521
I3153
sS'CDs'
p2522
I4697
sS'dollar'
p2523
I3007
sS'month'
p2524
I1758
sS'founded'
p2525
I3009
sS'balloon'
p2526
I2292
sS'deadline'
p2527
I1759
sS'Take'
p2528
I1760
sS'cooperative'
p2529
I3010
sS'talks'
p2530
I3011
sS'follow'
p2531
I4240
sS'settlement'
p2532
I4241
sS'decisions'
p2533
I4242
sS'reluctant'
p2534
I3012
sS'William'
p2535
I3013
sS'number'
p2536
I675
sS'referring'
p2537
I1763
sS'jewelry'
p2538
I292
sS'opportunities'
p2539
I4244
sS'Trade'
p2540
I2969
sS'insects'
p2541
I3032
sS'to'
p2542
I580
sS'program'
p2543
I4245
sS'dairy'
p2544
I4246
sS'14'
p2545
I2819
sS'safety'
p2546
I1859
sS'lawmakers'
p2547
I4247
sS'PRIME'
p2548
I3014
sS'activities'
p2549
I4248
sS'global'
p2550
I1468
sS'premium'
p2551
I3015
sS'song'
p2552
I4250
sS'very'
p2553
I1765
sS'Alaska'
p2554
I4252
sS'induce'
p2555
I1775
sS'results'
p2556
I874
sS'Erwin'
p2557
I4254
sS'blockade'
p2558
I582
sS'worst'
p2559
I4255
sS'decide'
p2560
I1767
sS'got'
p2561
I3726
sS'existing'
p2562
I875
sS'condition'
p2563
I1137
sS'Cockburn'
p2564
I583
sS'delivery'
p2565
I1125
sS'`'
p2566
I3711
sS'unlike'
p2567
I4702
sS'cable'
p2568
I584
sS'--'
p2569
I1768
sS'grand-jury'
p2570
I3017
sS'list'
p2571
I4257
sS'joined'
p2572
I585
sS'large'
p2573
I586
sS'small'
p2574
I587
sS'economically'
p2575
I3018
sS'Seidman'
p2576
I1769
sS'3.18'
p2577
I1770
sS'owned'
p2578
I990
sS'triple-A'
p2579
I4209
sS'Nomura'
p2580
I588
sS'300ZX'
p2581
I2285
sS'penalties'
p2582
I3746
sS'193'
p2583
I589
sS'past'
p2584
I590
sS'go'
p2585
I2070
sS'Only'
p2586
I3019
sS'design'
p2587
I4259
sS'lawyer'
p2588
I3020
sS'pass'
p2589
I591
sS'further'
p2590
I3760
sS'East'
p2591
I4261
sS'investment'
p2592
I592
sS'10.48'
p2593
I3021
sS'HUD'
p2594
I1771
sS'will'
p2595
I4704
sS'what'
p2596
I4262
sS'Korea'
p2597
I1772
sS'stood'
p2598
I3022
sS'consumers'
p2599
I1773
sS'indicated'
p2600
I1206
sS'investing'
p2601
I1307
sS'deeply'
p2602
I1308
sS'Elanco'
p2603
I1774
sS'judiciary'
p2604
I3565
sS'version'
p2605
I4263
sS'scientists'
p2606
I594
sS'certificates'
p2607
I1776
sS'learned'
p2608
I1777
sS'seemed'
p2609
I879
sS'public'
p2610
I3023
sS'contrast'
p2611
I596
sS'movement'
p2612
I3024
sS'turmoil'
p2613
I1778
sS'full'
p2614
I597
sS'estate'
p2615
I3688
sS'ranged'
p2616
I3025
sS'Alltel'
p2617
I1779
sS'Finland'
p2618
I598
sS'component'
p2619
I3026
sS'fueling'
p2620
I3186
sS'answers'
p2621
I1780
sS'prepayment'
p2622
I4293
sS'hours'
p2623
I599
sS'Arthur'
p2624
I3027
sS'anticipation'
p2625
I2696
sS'operating'
p2626
I3028
sS'situation'
p2627
I496
sS'Nahas'
p2628
I1783
sS'soon'
p2629
I1826
sS'buy'
p2630
I3605
sS'ascending'
p2631
I2494
sS'Spencer'
p2632
I4602
sS'thrift'
p2633
I4264
sS'Borden'
p2634
I1785
sS'sensory'
p2635
I109
sS'900'
p2636
I3029
sS'prosecutors'
p2637
I3030
sS'naval'
p2638
I4265
sS'ahead'
p2639
I1786
sS'extraordinary'
p2640
I3114
sS'else'
p2641
I1952
sS'margin'
p2642
I2909
sS'inspired'
p2643
I1787
sS'losses'
p2644
I1788
sS'allows'
p2645
I4266
sS'qualify'
p2646
I666
sS'Dole'
p2647
I1789
sS'Any'
p2648
I2287
sS'prior'
p2649
I601
sS'Keenan'
p2650
I3828
sS'Cranston-Mitchell'
p2651
I4267
sS'advertising'
p2652
I1382
sS'published'
p2653
I3031
sS'action'
p2654
I603
sS'narrow'
p2655
I3837
sS'options'
p2656
I4268
sS'point'
p2657
I3216
sS'sticking'
p2658
I4269
sS'arms-control'
p2659
I4270
sS'via'
p2660
I604
sS'followed'
p2661
I2786
sS'family'
p2662
I1791
sS'<root>'
p2663
I4476
sS'Stanza'
p2664
I2986
sS'enactment'
p2665
I3850
sS'10,000'
p2666
I2439
sS'put'
p2667
I985
sS'aimed'
p2668
I1792
sS'trained'
p2669
I1793
sS'Standard'
p2670
I3933
sS'establish'
p2671
I3033
sS'select'
p2672
I605
sS'Europe'
p2673
I3034
sS'shareholders'
p2674
I3035
sS'wanted'
p2675
I3732
sS'eye'
p2676
I3036
sS'takes'
p2677
I1795
sS'presence'
p2678
I3889
sS'Hewlett-Packard'
p2679
I606
sS'Egg'
p2680
I607
sS'one-day'
p2681
I1796
sS'acrimony'
p2682
I1540
sS'two'
p2683
I3037
sS'N.J.'
p2684
I2424
sS'Investments'
p2685
I1870
sS'Corp'
p2686
I3038
sS'Kirgizia'
p2687
I1797
sS'familiar'
p2688
I1036
sS'libel'
p2689
I3039
sS'taken'
p2690
I1798
sS'promoting'
p2691
I3936
sS'markets'
p2692
I4271
sS'Conlon'
p2693
I610
sS'minor'
p2694
I4272
sS'more'
p2695
I611
sS'Manville'
p2696
I4273
sS'lowering'
p2697
I1800
sS'door'
p2698
I613
sS'LTV'
p2699
I3040
sS'tobacco'
p2700
I2245
sS'Kennedy'
p2701
I3041
sS'FEDERAL'
p2702
I3042
sS'division'
p2703
I1475
sS'Philippines'
p2704
I3916
sS'LaFalce'
p2705
I615
sS'telephone'
p2706
I4137
sS'Banking'
p2707
I1462
sS'American'
p2708
I3922
sS'controlling'
p2709
I3043
sS'stick'
p2710
I4277
sS'broke'
p2711
I1803
sS'particular'
p2712
I3044
sS'known'
p2713
I1469
sS'retained'
p2714
I670
sS'mellow'
p2715
I4279
sS'factories'
p2716
I1804
sS'producing'
p2717
I1473
sS'town'
p2718
I3046
sS'none'
p2719
I3047
sS'Now'
p2720
I2073
sS'hour'
p2721
I3048
sS'faced'
p2722
I3800
sS'Zell'
p2723
I4280
sS'other'
p2724
I4735
sS'remain'
p2725
I3049
sS'del'
p2726
I3050
sS'budgets'
p2727
I1806
sS'forward-rate'
p2728
I4281
sS'pioneered'
p2729
I3959
sS'strategies'
p2730
I3052
sS'male'
p2731
I619
sS'Berthold'
p2732
I2499
sS'Inc'
p2733
I4282
sS'Conference'
p2734
I620
sS'purchases'
p2735
I3053
sS'Retirement'
p2736
I3054
sS'prompt'
p2737
I621
sS'Yale'
p2738
I2757
sS'adviser'
p2739
I1808
sS'lives'
p2740
I1953
sS'Ariz.'
p2741
I2290
sS'share'
p2742
I3055
sS'accept'
p2743
I623
sS'states'
p2744
I624
sS'pushed'
p2745
I1809
sS'Lyphomed'
p2746
I4283
sS'way'
p2747
I4047
sS'protects'
p2748
I4284
sS'purchased'
p2749
I3058
sS'sense'
p2750
I626
sS'sharp'
p2751
I3059
sS'Calif'
p2752
I3060
sS'chores'
p2753
I4285
sS'maturing'
p2754
I3062
sS'needs'
p2755
I3063
sS'Parliament'
p2756
I4286
sS'5.4'
p2757
I4287
sS'Raymond'
p2758
I3065
sS'rather'
p2759
I4288
sS'plans'
p2760
I4013
sS'breaking'
p2761
I4289
sS'United'
p2762
I4160
sS'surpassed'
p2763
I1811
sS'Sales'
p2764
I4425
sS'stemming'
p2765
I4291
sS'earnings'
p2766
I628
sS'speeding'
p2767
I4292
sS'businessmen'
p2768
I1873
sS'Hanover'
p2769
I629
sS'Television'
p2770
I1563
sS'tried'
p2771
I1568
sS'Schneider'
p2772
I4020
sS'minimum'
p2773
I3057
sS'different'
p2774
I3069
sS'Foreign'
p2775
I4295
sS'reflect'
p2776
I4296
sS'retirement'
p2777
I1981
sS'tries'
p2778
I1813
sS'Nebraska'
p2779
I3070
sS'coming'
p2780
I3071
sS'Swiss'
p2781
I634
sS'response'
p2782
I3835
sS'nonetheless'
p2783
I1141
sS'a'
p2784
I1815
sS'changes'
p2785
I3667
sS'short'
p2786
I4298
sS'Mexico'
p2787
I1817
sS'overnight'
p2788
I1818
sS'Deep'
p2789
I1819
sS'Haag'
p2790
I3123
sS'renewing'
p2791
I1820
sS'broadcasting'
p2792
I636
sS'ego'
p2793
I1821
sS'Democrats'
p2794
I4300
sS'fundamental'
p2795
I637
sS'pay'
p2796
I2915
sS'banks'
p2797
I1822
sS'lasting'
p2798
I3719
sS'dream'
p2799
I1620
sS'privileges'
p2800
I4712
sS'turnover'
p2801
I4302
sS'greats'
p2802
I639
sS'What'
p2803
I3074
sS'help'
p2804
I1824
sS'developed'
p2805
I4303
sS'Nikko'
p2806
I4304
sS'trade'
p2807
I640
sS'held'
p2808
I1827
sS'attitude'
p2809
I641
sS'paper'
p2810
I642
sS'through'
p2811
I3075
sS'committee'
p2812
I1828
sS'committed'
p2813
I1640
sS'documents'
p2814
I1011
sS'clarinet'
p2815
I1829
sS'Edelman'
p2816
I644
sS'agrees'
p2817
I2353
sS'trouble'
p2818
I1480
sS'Texas'
p2819
I3076
sS'24'
p2820
I3077
sS'25'
p2821
I3078
sS'style'
p2822
I4305
sS'27'
p2823
I3080
sS'20'
p2824
I3081
sS'21'
p2825
I3082
sS'22'
p2826
I3083
sS'23'
p2827
I3084
sS'Fiat'
p2828
I3185
sS'sale'
p2829
I2677
sS'28'
p2830
I3085
sS'29'
p2831
I3086
sS'actually'
p2832
I1831
sS'late'
p2833
I4121
sS'Phelan'
p2834
I1832
sS'Marietta'
p2835
I3087
sS'systems'
p2836
I1662
sS'annual'
p2837
I3212
sS'peanuts'
p2838
I1834
sS'Brussels'
p2839
I647
sS'might'
p2840
I4307
sS'lire'
p2841
I1835
sS'arguments'
p2842
I2917
sS'tentatively'
p2843
I649
sS'good'
p2844
I3088
sS'return'
p2845
I4308
sS'seeking'
p2846
I3090
sS'food'
p2847
I1838
sS'delivered'
p2848
I2005
sS'Michael'
p2849
I650
sS'Bay'
p2850
I3091
sS'resigned'
p2851
I1839
sS'anticipates'
p2852
I1841
sS'formulating'
p2853
I3092
sS'Senior'
p2854
I1842
sS'hearing'
p2855
I3738
sS'complain'
p2856
I3093
sS'bigger'
p2857
I4310
sS'Amendment'
p2858
I4173
sS'easily'
p2859
I3095
sS'stopper'
p2860
I1844
sS'stated'
p2861
I622
sS'Investors'
p2862
I2079
sS'adjacent'
p2863
I3693
sS'occasions'
p2864
I1845
sS'Greene'
p2865
I2409
sS'Telephone'
p2866
I4311
sS'someone'
p2867
I4290
sS'habits'
p2868
I3096
sS'stopped'
p2869
I1848
sS'Council'
p2870
I1849
sS'letting'
p2871
I178
sS'McDonnell'
p2872
I3097
sS'repeating'
p2873
I3098
sS'SFE'
p2874
I1850
sS'characterized'
p2875
I4312
sS'investigators'
p2876
I653
sS'heavy'
p2877
I1852
sS'week'
p2878
I4143
sS'harm'
p2879
I3099
sS'everyone'
p2880
I3100
sS'fail'
p2881
I171
sS'Marcus'
p2882
I3543
sS'generation'
p2883
I4313
sS'house'
p2884
I3101
sS'energy'
p2885
I3102
sS'hard'
p2886
I3103
sS'reduce'
p2887
I655
sS'idea'
p2888
I3104
sS'slowdown'
p2889
I656
sS'high-production'
p2890
I4144
sS'expect'
p2891
I4314
sS'seniority'
p2892
I3105
sS'Panisse'
p2893
I4216
sS'standards'
p2894
I3943
sS'event'
p2895
I1854
sS'really'
p2896
I659
sS'leave'
p2897
I311
sS'initiatives'
p2898
I3107
sS'uninvited'
p2899
I73
sS'funding'
p2900
I4233
sS'item'
p2901
I2714
sS'walked'
p2902
I870
sS'blue-chip'
p2903
I1856
sS'Samuel'
p2904
I4316
sS'temporary'
p2905
I1972
sS'projected'
p2906
I3109
sS'research'
p2907
I660
sS'1.75'
p2908
I3110
sS'participants'
p2909
I4243
sS'health'
p2910
I4317
sS'longtime'
p2911
I3111
sS'7'
p2912
I1860
sS'Prudential-Bache'
p2913
I1861
sS'flashes'
p2914
I4685
sS'1.78'
p2915
I3112
sS'Class'
p2916
I661
sS'cost-cutting'
p2917
I4318
sS'IRS'
p2918
I507
sS'disobedience'
p2919
I3113
sS'belief'
p2920
I662
sS'risen'
p2921
I663
sS'grand'
p2922
I1969
sS'upon'
p2923
I1076
sS'Plaza'
p2924
I1863
sS'According'
p2925
I1864
sS'depository'
p2926
I313
sS'reason'
p2927
I1866
sS'base'
p2928
I1867
sS'imperial'
p2929
I2350
sS'members'
p2930
I3115
sS'ask'
p2931
I1868
sS'heads'
p2932
I677
sS'rises'
p2933
I667
sS'beginning'
p2934
I3117
sS'generate'
p2935
I4321
sS'Researchers'
p2936
I1871
sS'director'
p2937
I633
sS'owners'
p2938
I669
sS'benefits'
p2939
I4278
sS'Congress'
p2940
I3740
sS'People'
p2941
I4322
sS'seasonal'
p2942
I3777
sS'Boston'
p2943
I1872
sS'computers'
p2944
I3119
sS'first-half'
p2945
I4148
sS'Debate'
p2946
I3945
sS'called'
p2947
I4506
sS'PAPER'
p2948
I3120
sS'Expect'
p2949
I4323
sS'threat'
p2950
I1812
sS'scheduled'
p2951
I4172
sS'Lexus'
p2952
I1814
sS'pilots'
p2953
I1467
sS'top'
p2954
I3741
sS'feed'
p2955
I4324
sS'Turkey'
p2956
I3353
sS'embraces'
p2957
I1649
sS'amounted'
p2958
I2651
sS'slipped'
p2959
I673
sS'feel'
p2960
I4325
sS'mistakenly'
p2961
I3124
sS'reflected'
p2962
I1874
sS'fancy'
p2963
I1840
sS'whom'
p2964
I4417
sS'well-known'
p2965
I1843
sS'unexpected'
p2966
I2716
sS'done'
p2967
I3125
sS'airborne'
p2968
I1876
sS'changing'
p2969
I4151
sS'slower'
p2970
I4328
sS'wages'
p2971
I3126
sS'speedometer'
p2972
I4329
sS'contended'
p2973
I676
sS'passes'
p2974
I4330
sS'horse'
p2975
I1875
sS'Transportation'
p2976
I4320
sS'Medco'
p2977
I3128
sS'become'
p2978
I1094
sS'leading'
p2979
I4332
sS'WPP'
p2980
I3129
sS'least'
p2981
I3130
sS'lobby'
p2982
I4720
sS'180'
p2983
I3131
sS'station'
p2984
I1877
sS'difficulties'
p2985
I3505
sS'passed'
p2986
I4334
sS'dealing'
p2987
I2717
sS'Belgium'
p2988
I3133
sS'Matthews'
p2989
I4336
sS'188'
p2990
I3135
sS'hundred'
p2991
I1879
sS'southern'
p2992
I4615
sS'voted'
p2993
I1168
sS'store'
p2994
I1885
sS'too'
p2995
I3744
sS'figures'
p2996
I1064
sS'noted'
p2997
I4536
sS'selling'
p2998
I1880
sS'statement'
p2999
I3132
sS'relationship'
p3000
I679
sS'behind'
p3001
I2855
sS'Delta'
p3002
I1878
sS'appreciation'
p3003
I680
sS'part'
p3004
I3138
sS'demonstrations'
p3005
I1703
sS'doctors'
p3006
I3140
sS'bonds'
p3007
I1035
sS'believe'
p3008
I3141
sS'convinced'
p3009
I4337
sS'percentage'
p3010
I3745
sS'869'
p3011
I3142
sS'king'
p3012
I4338
sS'kind'
p3013
I4339
sS'scheme'
p3014
I1882
sS'double'
p3015
I4340
sS'largely'
p3016
I2926
sS'finances'
p3017
I4335
sS'youth'
p3018
I3143
sS'determined'
p3019
I683
sS'marriage'
p3020
I684
sS'supposed'
p3021
I3144
sS'toward'
p3022
I1887
sS'ousted'
p3023
I1888
sS'Is'
p3024
I4152
sS'subsidies'
p3025
I1889
sS'procedural'
p3026
I1890
sS'normal'
p3027
I2838
sS'obstacles'
p3028
I4342
sS'businesslike'
p3029
I3146
sS'strengthen'
p3030
I4344
sS'constitutional'
p3031
I1681
sS'Peace'
p3032
I1892
sS'ceiling'
p3033
I3748
sS'Douglas'
p3034
I1893
sS'It'
p3035
I4153
sS'licenses'
p3036
I894
sS'substantial'
p3037
I1894
sS'Achenbaum'
p3038
I686
sS'Fortney'
p3039
I1895
sS'Equity'
p3040
I687
sS'Posted'
p3041
I3542
sS'Industrial'
p3042
I2357
sS'organs'
p3043
I1896
sS'orders'
p3044
I3147
sS'vulnerable'
p3045
I1968
sS'option'
p3046
I1160
sS'sell'
p3047
I688
sS'thought'
p3048
I3552
sS'collateralized'
p3049
I3148
sS'20,000'
p3050
I2176
sS'built'
p3051
I3149
sS'evasion'
p3052
I1897
sS'something'
p3053
I4577
sS'trip'
p3054
I3908
sS'Cos.'
p3055
I4459
sS'Price'
p3056
I1899
sS'officers'
p3057
I1900
sS'client'
p3058
I1392
sS'Scientists'
p3059
I3594
sS'also'
p3060
I689
sS'appellate'
p3061
I3154
sS'Drexel'
p3062
I1988
sS'build'
p3063
I3155
sS'Kim'
p3064
I3156
sS'finding'
p3065
I4348
sS'restrictions'
p3066
I1061
sS'With'
p3067
I1901
sS'Germans'
p3068
I4349
sS'seized'
p3069
I691
sS'play'
p3070
I692
sS'added'
p3071
I4350
sS'critics'
p3072
I2172
sS'semiannual'
p3073
I1846
sS'eggs'
p3074
I3158
sS'measures'
p3075
I4351
sS'reach'
p3076
I4352
sS'Hawaii'
p3077
I3159
sS'me'
p3078
I3683
sS'76'
p3079
I4353
sS'75'
p3080
I4354
sS'hired'
p3081
I1902
sS'shareholder'
p3082
I4355
sS'plan'
p3083
I693
sS'significant'
p3084
I3162
sS'70'
p3085
I4357
sS'nothing'
p3086
I4358
sS'The'
p3087
I1904
sS'Petroleos'
p3088
I694
sS'approved'
p3089
I1905
sS'soared'
p3090
I4360
sS'stands'
p3091
I3955
sS'Mehl'
p3092
I4362
sS'dealers'
p3093
I4363
sS'sizable'
p3094
I3137
sS'Institutional'
p3095
I1907
sS'performances'
p3096
I1908
sS'45-year-old'
p3097
I4364
sS'sometimes'
p3098
I695
sS'cover'
p3099
I696
sS'shortly'
p3100
I3838
sS'drawing'
p3101
I1083
sS'traditional'
p3102
I4365
sS'charitable'
p3103
I3167
sS'three-month'
p3104
I697
sS'Lambert'
p3105
I3813
sS'1/2'
p3106
I444
sS'British'
p3107
I2139
sS'justify'
p3108
I698
sS'Robinson'
p3109
I3168
sS'institutions'
p3110
I4366
sS'favorable'
p3111
I3139
sS'sector'
p3112
I3170
sS'stalked'
p3113
I1911
sS'66'
p3114
I4118
sS'golf'
p3115
I700
sS'rebels'
p3116
I3172
sS'gold'
p3117
I701
sS'Norris'
p3118
I1912
sS'obligations'
p3119
I3173
sS'commissions'
p3120
I3174
sS'league'
p3121
I2280
sS'judges'
p3122
I2538
sS'pollinate'
p3123
I3274
sS'Majority'
p3124
I4367
sS'session'
p3125
I702
sS'businesses'
p3126
I3175
sS'Hill'
p3127
I3176
sS'stores'
p3128
I3554
sS'Keating'
p3129
I4368
sS'Lilly'
p3130
I704
sS'find'
p3131
I3177
sS'impact'
p3132
I705
sS'cell'
p3133
I2088
sS'indicator'
p3134
I706
sS'justice'
p3135
I1913
sS'writer'
p3136
I707
sS'distributed'
p3137
I3181
sS'French'
p3138
I1914
sS'penalty'
p3139
I4370
sS'being'
p3140
I510
sS'flights'
p3141
I1915
sS'rubles'
p3142
I4371
sS'generators'
p3143
I3182
sS'condom'
p3144
I709
sS'money'
p3145
I2934
sS'override'
p3146
I3183
sS'Lyonnais'
p3147
I1917
sS'appealing'
p3148
I1004
sS'sure'
p3149
I4067
sS'giants'
p3150
I711
sS'his'
p3151
I4372
sS'hit'
p3152
I2134
sS'gains'
p3153
I4374
sS'meanwhile'
p3154
I2135
sS'Bowater'
p3155
I2137
sS'banned'
p3156
I4586
sS'flowing'
p3157
I899
sS'Jersey'
p3158
I1483
sS'financing'
p3159
I1881
sS'mortgage-backed'
p3160
I4375
sS'advocates'
p3161
I2140
sS'While'
p3162
I1918
sS'Cilcorp'
p3163
I2510
sS'5,000'
p3164
I2142
sS'actions'
p3165
I712
sS'closely'
p3166
I713
sS'competing'
p3167
I1921
sS'1.80'
p3168
I3929
sS'NAM'
p3169
I2623
sS'running'
p3170
I2921
sS'him'
p3171
I4377
sS'merchandise'
p3172
I3192
sS'Maxima'
p3173
I1924
sS'grievances'
p3174
I4378
sS'resolve'
p3175
I3194
sS'Gant'
p3176
I3195
sS'recycled'
p3177
I3196
sS'debt-equity'
p3178
I716
sS'Kong'
p3179
I4085
sS'Mexicans'
p3180
I512
sS'remove'
p3181
I3197
sS'six-month'
p3182
I3198
sS'banking'
p3183
I717
sS'J.'
p3184
I4379
sS'common'
p3185
I3199
sS'activity'
p3186
I4380
sS'river'
p3187
I718
sS'wrote'
p3188
I4381
sS'rumored'
p3189
I719
sS'set'
p3190
I720
sS'could'
p3191
I984
sS'For'
p3192
I721
sS'Nov.'
p3193
I3957
sS'throwing'
p3194
I1926
sS'declines'
p3195
I4383
sS'opposing'
p3196
I931
sS'activists'
p3197
I722
sS'Rosen'
p3198
I1927
sS'instituted'
p3199
I723
sS'France'
p3200
I1928
sS'Enfield'
p3201
I4164
sS'see'
p3202
I724
sS'professional'
p3203
I1623
sS'are'
p3204
I4385
sS'sea'
p3205
I4171
sS'tender'
p3206
I3202
sS'transportation'
p3207
I2725
sS'Fraser'
p3208
I2432
sS'2.6'
p3209
I2213
sS'2.5'
p3210
I2216
sS'feared'
p3211
I3203
sS'regulator'
p3212
I4445
sg65
I725
sS'probable'
p3213
I1931
sS'Critics'
p3214
I4390
sS'guinea'
p3215
I4648
sS'attracting'
p3216
I2715
sS'currently'
p3217
I726
sS'burner'
p3218
I3204
sS'case'
p3219
I4133
sS'pickup'
p3220
I727
sS'Officials'
p3221
I1884
sS'various'
p3222
I3509
sS'electrical'
p3223
I734
sS'downturn'
p3224
I4392
sS'conditions'
p3225
I1935
sS'corruption'
p3226
I4393
sS'favor'
p3227
I4079
sS'risks'
p3228
I4341
sS'available'
p3229
I729
sS'Cambria'
p3230
I4391
sS'recently'
p3231
I4394
sS'creating'
p3232
I4395
sS'missing'
p3233
I1936
sS'targeted'
p3234
I730
sS'dividends'
p3235
I3206
sS'Transgenic'
p3236
I2259
sS'sole'
p3237
I2261
sS'Florida'
p3238
I731
sS'general-purpose'
p3239
I4399
sS'incident'
p3240
I732
sS'ranked'
p3241
I1939
sS'Hollander'
p3242
I3853
sS'turning'
p3243
I2493
sS'UniFirst'
p3244
I3209
sS'African'
p3245
I4402
sS'franchise'
p3246
I4403
sS'dividend'
p3247
I733
sS'Japanese'
p3248
I3702
sS'remaining'
p3249
I1990
sS'official'
p3250
I2249
sS'AND'
p3251
I4404
sS'both'
p3252
I1940
sS'full-time'
p3253
I4693
sS'enables'
p3254
I2514
sS'improved'
p3255
I4698
sS'license'
p3256
I4405
sS'restaurant'
p3257
I3211
sS'bidder'
p3258
I2515
sS'barely'
p3259
I4708
sS'second-largest'
p3260
I1942
sS'Bloedel'
p3261
I3213
sS'foreign'
p3262
I3214
sS'Steve'
p3263
I1943
sS'sensitive'
p3264
I1944
sS'1.65'
p3265
I738
sS'became'
p3266
I4406
sS'rose'
p3267
I4166
sS'long-term'
p3268
I739
sS'let'
p3269
I905
sS'McEnaney'
p3270
I740
sS'El'
p3271
I3118
sS'approve'
p3272
I741
sS'Yet'
p3273
I3215
sS'Cotton'
p3274
I4407
sS'insurance'
p3275
I3106
sS'flies'
p3276
I4408
sS'Friday'
p3277
I3559
sS'headed'
p3278
I1945
sS'simple'
p3279
I3217
sS'loan'
p3280
I742
sS'S-Cargo'
p3281
I4410
sS'community'
p3282
I743
sS'Eduard'
p3283
I1088
sS'Dallas'
p3284
I3218
sS'simply'
p3285
I3219
sS'church'
p3286
I745
sS'rural'
p3287
I1157
sS'mission'
p3288
I23
sS'expensive'
p3289
I3220
sS'headaches'
p3290
I3221
sS'bolster'
p3291
I4411
sS'decline'
p3292
I4412
sS'Khmer'
p3293
I3222
sS'described'
p3294
I1947
sS'raise'
p3295
I3223
sS'duo'
p3296
I4413
sS'monthly'
p3297
I747
sS'defunct'
p3298
I3210
sS'create'
p3299
I3224
sS'outstanding'
p3300
I4343
sS'political'
p3301
I4414
sS'due'
p3302
I4415
sS'strategy'
p3303
I4416
sS'rivals'
p3304
I3225
sS'Protection'
p3305
I1949
sS'Jennison'
p3306
I748
sS'superconductor'
p3307
I2729
sS'Carl'
p3308
I4777
sS'God'
p3309
I1891
sS'Bromley'
p3310
I544
sS'Bancorp'
p3311
I3227
sS'woke'
p3312
I4418
sS'4'
p3313
I2937
sS'firm'
p3314
I749
sS'dialogue'
p3315
I1606
sS'partly'
p3316
I1951
sS'sending'
p3317
I1501
sS'fire'
p3318
I750
sS'gas'
p3319
I3228
sS'precision'
p3320
I4419
sS'deter'
p3321
I2376
sS'fund'
p3322
I752
sS'UNESCO'
p3323
I3987
sS'38'
p3324
I753
sS'understand'
p3325
I3231
sS'specifically'
p3326
I409
sS'bidding'
p3327
I1954
sS'demand'
p3328
I4421
sS'prices'
p3329
I3232
sS'resisted'
p3330
I3233
sS'despite'
p3331
I3786
sS'second-quarter'
p3332
I1955
sS'plants'
p3333
I4422
sS'highest'
p3334
I2355
sS'replaces'
p3335
I3234
sS'Old'
p3336
I758
sS'look'
p3337
I1957
sS'Sidley'
p3338
I1626
sS'solid'
p3339
I3235
sS'judicial'
p3340
I759
sS'straight'
p3341
I760
sS'bill'
p3342
I3236
sS'elections'
p3343
I3237
sS'governor'
p3344
I1958
sS'Agency'
p3345
I153
sS'pace'
p3346
I1959
sS'while'
p3347
I1960
sS'3.35'
p3348
I2403
sS'match'
p3349
I1961
sS'Likewise'
p3350
I2096
sS'fun'
p3351
I3239
sS'Energy'
p3352
I910
sS'Advancing'
p3353
I4426
sS'Industries'
p3354
I1962
sS'City'
p3355
I4427
sS'19.7'
p3356
I4428
sS'Italy'
p3357
I4429
sS'Sumitomo'
p3358
I4430
sS'century'
p3359
I3241
sS'cents'
p3360
I3242
sS'Fingers'
p3361
I1965
sS'evident'
p3362
I1129
sS'Back'
p3363
I2097
sS'disappointing'
p3364
I4431
sS'obstacle'
p3365
I4432
sS'Bach'
p3366
I2098
sS'seen'
p3367
I2522
sS'Pertschuk'
p3368
I769
sS'34'
p3369
I770
sS'examiners'
p3370
I4433
sS'chase'
p3371
I74
sS'lengthy'
p3372
I4435
sS'Chicago-based'
p3373
I4436
sS'ample'
p3374
I2315
sS'anymore'
p3375
I1966
sS'grant'
p3376
I1967
sS'Penney'
p3377
I4437
sS'rosy'
p3378
I4438
sS'rules'
p3379
I1698
sS'virtually'
p3380
I773
sS'widely'
p3381
I4439
sS'rejoin'
p3382
I516
sS'9'
p3383
I4441
sS'products'
p3384
I2099
sS'advise'
p3385
I4442
sS'conflict'
p3386
I1970
sS'higher'
p3387
I4443
sS'development'
p3388
I3245
sS'About'
p3389
I4444
sS'Camp'
p3390
I4175
sS'lawyers'
p3391
I2486
sS'Then'
p3392
I135
sS'Asia-Pacific'
p3393
I3246
sS'defeat'
p3394
I777
sS'friends'
p3395
I2377
sS'yesterday'
p3396
I3247
sS'flows'
p3397
I4447
sS'alert'
p3398
I778
sS'Itel'
p3399
I4448
sS'moment'
p3400
I3248
sS'J.C.'
p3401
I1974
sS'arrived'
p3402
I2500
sS'purpose'
p3403
I3249
sS'robust'
p3404
I4451
sS'{'
p3405
I780
sS'recent'
p3406
I781
sS'Ortega'
p3407
I4176
sS'lower'
p3408
I4452
sS'turnaround'
p3409
I898
sS'Distance'
p3410
I3721
sS'Power'
p3411
I3150
sS'older'
p3412
I1977
sS'Source'
p3413
I1048
sS'Miller'
p3414
I4453
sS'alleging'
p3415
I783
sS'anybody'
p3416
I4454
sS'without'
p3417
I4154
sS'person'
p3418
I784
sS'priced'
p3419
I3229
sS'edge'
p3420
I4457
sS'services'
p3421
I3163
sS'machinery'
p3422
I4458
sS'CBS'
p3423
I3779
sS'organization'
p3424
I144
sS'clearance'
p3425
I786
sS'rates'
p3426
I3134
sS'spend'
p3427
I3253
sS'preference'
p3428
I3254
sS'pollen'
p3429
I4460
sS'grievance'
p3430
I4461
sS'one-year'
p3431
I3255
sS'junk-bond'
p3432
I3256
sS'-'
p3433
I3763
sS'polled'
p3434
I4462
sS'settlements'
p3435
I1980
sS'competitive'
p3436
I4463
sS'Virginia'
p3437
I3151
sS'distracting'
p3438
I3257
sS'adjustable'
p3439
I2733
sS'tennis'
p3440
I2655
sS'questions'
p3441
I4464
sS'world'
p3442
I520
sS'retired'
p3443
I1505
sS'alternative'
p3444
I3258
sS'conservative'
p3445
I1715
sS'timber'
p3446
I3259
sS'discipline'
p3447
I2478
sS'cut'
p3448
I3261
sS'helping'
p3449
I4515
sg67
I1982
sS'advanced'
p3450
I3855
sS'over-the-counter'
p3451
I1983
sS'informal'
p3452
I1984
sS'advisers'
p3453
I4466
sS'workers'
p3454
I4467
sS'danger'
p3455
I2101
sS'guaranteed'
p3456
I1985
sS'attractive'
p3457
I4737
sS'exclusively'
p3458
I4468
sS'soybeans'
p3459
I4469
sS'uncertainty'
p3460
I2562
sS'internal'
p3461
I690
sS'Christopher'
p3462
I3264
sS'homeland'
p3463
I792
sS'Berkeley'
p3464
I1987
sS'Brands'
p3465
I793
sS'Germany'
p3466
I4346
sS'ruled'
p3467
I1704
sS'administrative'
p3468
I3265
sS'merely'
p3469
I2735
sS'surprised'
p3470
I794
sS'chairman'
p3471
I1991
sS'...'
p3472
I1992
sS'complaint'
p3473
I1443
sS'bills'
p3474
I4603
sS'Last'
p3475
I2596
sS'They'
p3476
I139
sS'emergency'
p3477
I798
sS'demands'
p3478
I799
sS'evaluate'
p3479
I1993
sS'rebound'
p3480
I212
sS'Bickwit'
p3481
I3268
sS'Commons'
p3482
I3269
sS'Suisse'
p3483
I1995
sS'Air'
p3484
I4471
sS'matters'
p3485
I3270
sS'game'
p3486
I1996
sS'clout'
p3487
I2103
sS'foreigners'
p3488
I3271
sS'Campaneris'
p3489
I3272
sS'bit'
p3490
I3273
sS'Or'
p3491
I804
sS'projects'
p3492
I805
sS'formal'
p3493
I806
sS'stimulators'
p3494
I1997
sS'summit'
p3495
I678
sS'anthers'
p3496
I807
sS'Undersecretary'
p3497
I98
sS'follows'
p3498
I3275
sS'message'
p3499
I4473
sS'separately'
p3500
I2638
sS'communications'
p3501
I809
sS'regular'
p3502
I2526
sS'individuals'
p3503
I810
sS'indication'
p3504
I3277
sS'400,000'
p3505
I1300
sS'popular'
p3506
I1999
sS'boxy'
p3507
I920
sS'maquiladoras'
p3508
I3278
sS'contributions'
p3509
I4527
sS'healthy'
p3510
I3963
sS'paralyzed'
p3511
I4474
sS'circles'
p3512
I1298
sS'new-model'
p3513
I4475
sS'often'
p3514
I3280
sS'Gulf'
p3515
I3281
sS'spring'
p3516
I815
sS'creation'
p3517
I2001
sS'some'
p3518
I2002
sS'grass-roots'
p3519
I3282
sS'3.6'
p3520
I4476
sS'3.7'
p3521
I2668
sS'3.5'
p3522
I4477
sS'prohibited'
p3523
I2337
sS'pricing'
p3524
I3283
sS'3.1'
p3525
I2674
sS"'ve"
p3526
I2944
sS'fanfare'
p3527
I2004
sS'3.8'
p3528
I4478
sS'leaders'
p3529
I3648
sS'abandon'
p3530
I3051
sS'scale'
p3531
I3284
sS'Seoul'
p3532
I3285
sS'Pittsburgh'
p3533
I2006
sS'Frank'
p3534
I816
sS'decision'
p3535
I3286
sS'though'
p3536
I3766
sS'audience'
p3537
I2946
sS'per'
p3538
I3287
sS'modest'
p3539
I402
sS'Fund'
p3540
I4479
sS'bankruptcy-law'
p3541
I4480
sS'Massachusetts'
p3542
I2008
sS'London'
p3543
I2947
sS'Yesterday'
p3544
I1142
sS'payments'
p3545
I2324
sS'Pact'
p3546
I818
sS'be'
p3547
I819
sS'claimed'
p3548
I3535
sS'run'
p3549
I2718
sS'300'
p3550
I3289
sS'first-time'
p3551
I2011
sS'Its'
p3552
I3775
sS'continuing'
p3553
I3290
sS'agreement'
p3554
I822
sS'David'
p3555
I3291
sS'aloft'
p3556
I4483
sS'step'
p3557
I2012
sS'Indianapolis'
p3558
I3293
sS'Moreover'
p3559
I3294
sS'major'
p3560
I672
sS'abroad'
p3561
I2015
sS'August'
p3562
I337
sS'pipeline'
p3563
I4484
sS'goods'
p3564
I3295
sS'francs'
p3565
I2740
sS'zip'
p3566
I923
sS'anything'
p3567
I825
sS'cigarette'
p3568
I2016
sS'exaggerated'
p3569
I826
sS'Pont'
p3570
I827
sS'&'
p3571
I4560
sS'Savings'
p3572
I3161
sS'remains'
p3573
I2104
sS'range'
p3574
I4487
sS'ounce'
p3575
I3296
sS'Committee'
p3576
I2017
sS'positive'
p3577
I2018
sS'Before'
p3578
I1711
sS'farmers'
p3579
I4093
sS'block'
p3580
I2019
sS'72'
p3581
I4356
sS'seeing'
p3582
I2020
sS'Stark'
p3583
I4027
sS'Eli'
p3584
I2021
sS'plenty'
p3585
I3298
sS'Stoltzman'
p3586
I376
sS'precisely'
p3587
I2186
sS'abusive'
p3588
I3299
sS'within'
p3589
I2022
sS'retailer'
p3590
I3300
sS'steady'
p3591
I276
sS'150-member'
p3592
I831
sS'Everything'
p3593
I4488
sS'because'
p3594
I4746
sS'primarily'
p3595
I832
sS'repaid'
p3596
I833
sS'sports'
p3597
I3973
sS'Ozal'
p3598
I2555
sS'bankruptcy'
p3599
I3301
sS'canal'
p3600
I4490
sS'Composite'
p3601
I2025
sS'treated'
p3602
I3145
sS'costly'
p3603
I1963
sS'question'
p3604
I4491
sS'handles'
p3605
I3974
sS'long'
p3606
I4492
sS'ordered'
p3607
I2038
sS'Georgia-Pacific'
p3608
I4493
sS'crackdown'
p3609
I836
sS'Unification'
p3610
I3303
sS'79'
p3611
I2026
sS'suit'
p3612
I837
sS'Mips'
p3613
I3304
sS'grew'
p3614
I1919
sS'Ross'
p3615
I4226
sS'scared'
p3616
I4494
sS'files'
p3617
I4495
sS'considerably'
p3618
I839
sS'plunge'
p3619
I4496
sS'elsewhere'
p3620
I840
sS'investigations'
p3621
I3914
sS'asset-backed'
p3622
I2932
sS'great'
p3623
I906
sS'adjusting'
p3624
I3306
sS'vehicle'
p3625
I2107
sS'Attorney'
p3626
I2529
sS'goods-producing'
p3627
I4497
sS'Ms.'
p3628
I4498
sS'deductions'
p3629
I842
sS'two-part'
p3630
I3308
sS'repeatedly'
p3631
I4499
sS'Ltd.'
p3632
I4500
sS'filed'
p3633
I4501
sS'hopes'
p3634
I3309
sS'subsidiary'
p3635
I3310
sS'line'
p3636
I843
sS'Austin'
p3637
I4502
sS'raising'
p3638
I4503
sS'posted'
p3639
I844
sS'GDP'
p3640
I845
sS'Beijing'
p3641
I3311
sS'rejection'
p3642
I3312
sS'refinancing'
p3643
I846
sS'Office'
p3644
I847
sS'Tuesday'
p3645
I2591
sS'Alvin'
p3646
I3313
sS'Loan'
p3647
I4504
sS'goodwill'
p3648
I3166
sS'Africa'
p3649
I849
sS'up'
p3650
I850
sS'us'
p3651
I851
sS'Thatcher'
p3652
I2878
sS'amendment'
p3653
I1096
sS'maturity'
p3654
I852
sS"'re"
p3655
I3314
sS'exploration'
p3656
I3315
sS'today'
p3657
I3976
sS'planes'
p3658
I3316
sS'jumbo'
p3659
I3317
sS'ago'
p3660
I866
sS'Florence'
p3661
I2888
sS'medical'
p3662
I2530
sS'yelled'
p3663
I855
sS'OTC'
p3664
I4507
sS'associated'
p3665
I4508
sS'adults'
p3666
I2039
sS'furor'
p3667
I3901
sS'Perhaps'
p3668
I3319
sS'stripped'
p3669
I3320
sS'start-up'
p3670
I857
sS'Dr.'
p3671
I2953
sS'muscles'
p3672
I3136
sS'Eventually'
p3673
I2400
sS'To'
p3674
I2040
sS'single'
p3675
I2301
sS'associates'
p3676
I4509
sS'Twins'
p3677
I859
sS'RATES'
p3678
I3892
sS'International'
p3679
I4186
sS'rally'
p3680
I4510
sS'Voices'
p3681
I3771
sS'Manhattan'
p3682
I860
sS'RC6280'
p3683
I3323
sS'%'
p3684
I3324
sS'May'
p3685
I3325
sS'employment'
p3686
I4751
sS'Venezuela'
p3687
I4063
sS'peace'
p3688
I4511
sS'A.'
p3689
I2045
sS'These'
p3690
I3978
sS'Mac'
p3691
I3326
sS'reputation'
p3692
I3772
sS'Mae'
p3693
I3327
sS'income'
p3694
I4512
sS'department'
p3695
I2048
sS'Man'
p3696
I3328
sS'responded'
p3697
I1311
sS'TNT'
p3698
I4513
sS'voters'
p3699
I1964
sS'elements'
p3700
I862
sS'Stearns'
p3701
I2351
sS'calculating'
p3702
I2959
sS'provided'
p3703
I4187
sS'testified'
p3704
I2117
sS're-election'
p3705
I2051
sS'after-tax'
p3706
I3773
sS'problems'
p3707
I4514
sS'prepared'
p3708
I3330
sS'regulations'
p3709
I4550
sS'generated'
p3710
I4516
sS'Sentra'
p3711
I2054
sS'Canonie'
p3712
I863
sS'allowing'
p3713
I4517
sS'hair'
p3714
I3573
sS'missile'
p3715
I2119
sS'sides'
p3716
I864
sS'mood'
p3717
I4188
sS'rallied'
p3718
I3332
sS'night'
p3719
I1408
sS'land'
p3720
I867
sS'methodologies'
p3721
I868
sS'Ad'
p3722
I2057
sS'vice'
p3723
I4518
sS'Zapfel'
p3724
I3333
sS'age'
p3725
I869
sS'vehicles'
p3726
I3334
sS'backed'
p3727
I3116
sS'bankers'
p3728
I3335
sS'departments'
p3729
I4519
sS'An'
p3730
I2060
sS'leftist'
p3731
I3833
sS'As'
p3732
I2061
sS'implied'
p3733
I1799
sS'Scott'
p3734
I3338
sS'Asian'
p3735
I3339
sS'Geiger'
p3736
I2063
sS'far'
p3737
I4251
sS'international'
p3738
I2723
sS'Soviets'
p3739
I2064
sS'Oakland'
p3740
I4521
sS'requires'
p3741
I2065
sS'having'
p3742
I872
sS'once'
p3743
I4522
sS'portraying'
p3744
I3341
sS'partial'
p3745
I873
sS'fixed-rate'
p3746
I2068
sS'unemployment'
p3747
I3844
sS'issued'
p3748
I4523
sS'resistance'
p3749
I4524
sS'tested'
p3750
I616
sS'However'
p3751
I4525
sS'Pell'
p3752
I2069
sS'advice'
p3753
I3068
sS'broader'
p3754
I876
sS'served'
p3755
I2950
sS'Department'
p3756
I3872
sS'attracted'
p3757
I4019
sS'adjustment'
p3758
I4526
sS'15,000'
p3759
I3342
sS'centers'
p3760
I878
sS'issues'
p3761
I4528
sS'rigidity'
p3762
I4529
sS'compact'
p3763
I2071
sS'demonstrators'
p3764
I1103
sS'McLaughlin'
p3765
I880
sS'Someone'
p3766
I3343
sS'Business'
p3767
I3344
sS'Means'
p3768
I3345
sS'similar'
p3769
I2037
sS'concerned'
p3770
I881
sS'young'
p3771
I882
sS'send'
p3772
I883
sS'appointed'
p3773
I2120
sS'intensive'
p3774
I3346
sS'Union'
p3775
I884
sS'does'
p3776
I1104
sS'UAL'
p3777
I4531
sS'Swanson'
p3778
I1678
sS'stable'
p3779
I4532
sS'quarterly'
p3780
I3347
sS'officials'
p3781
I2250
sS'include'
p3782
I4533
sS'friendly'
p3783
I2074
sS'indicating'
p3784
I2791
sS'Steel'
p3785
I3305
sS'probe'
p3786
I886
sS'Young'
p3787
I2075
sS'organizations'
p3788
I1517
sS'continues'
p3789
I887
sS'Mrs.'
p3790
I2077
sS'wave'
p3791
I2078
sS'putting'
p3792
I3349
sS'promise'
p3793
I4771
sS'Not'
p3794
I2072
sS'specific'
p3795
I3866
sS'drinking'
p3796
I4534
sS'continued'
p3797
I889
sS'minerals'
p3798
I890
sS'Markus'
p3799
I2116
sS'entire'
p3800
I3351
sS'Unificationist'
p3801
I3797
sS'litigation'
p3802
I4656
sS'sparked'
p3803
I665
sS'Wells'
p3804
I2369
sS'meant'
p3805
I2080
sS'positions'
p3806
I2081
sS'notes'
p3807
I4535
sS'fewer'
p3808
I891
sS'8.95'
p3809
I2082
sS'Defense'
p3810
I3352
sS'Morgan'
p3811
I2375
sS'car'
p3812
I1518
sS'Tomash'
p3813
I2648
sS'challenge'
p3814
I934
sS'hiding'
p3815
I1108
sS'Bankruptcy'
p3816
I893
sS'concluded'
p3817
I4537
sS'Index'
p3818
I2084
sS'averaged'
p3819
I2123
sS'Martin'
p3820
I1535
sS'350'
p3821
I1082
sS'Marks'
p3822
I2795
sS'13/16'
p3823
I1100
sS'Long'
p3824
I3354
sS'licensed'
p3825
I682
sS'Hutton'
p3826
I4539
sS'Equipment'
p3827
I2085
sS'State'
p3828
I4540
sS'picked'
p3829
I2086
sS'growing'
p3830
I2746
sS'nests'
p3831
I3355
sS'makers'
p3832
I4542
sS'index'
p3833
I895
sS'staffers'
p3834
I3357
sS'software'
p3835
I1113
sS'plays'
p3836
I2087
sS'underwriters'
p3837
I2962
sS'rate'
p3838
I4258
sS'giving'
p3839
I3358
sS'several'
p3840
I3832
sS'probably'
p3841
I1934
sS'fat'
p3842
I4253
sS'Alan'
p3843
I896
sS'practices'
p3844
I2612
sS'access'
p3845
I3359
sS'consistently'
p3846
I897
sS'waiting'
p3847
I4543
sS'clipboard'
p3848
I3360
sS'eating'
p3849
I2010
sS'capital'
p3850
I4544
sS'crossed'
p3851
I2125
sS';'
p3852
I2089
sS'America'
p3853
I2090
sS'Hong'
p3854
I3888
sS'exercise'
p3855
I3361
sS'thin'
p3856
I936
sS'body'
p3857
I3362
sS'Poor'
p3858
I3178
sS'ensure'
p3859
I3885
sS'led'
p3860
I903
sS'chose'
p3861
I4545
sS'stance'
p3862
I2092
sS'exchange'
p3863
I3363
sS'respectively'
p3864
I904
sS'pushing'
p3865
I4547
sS'commercial'
p3866
I2093
sS'amounts'
p3867
I2043
sS'jointly'
p3868
I3364
sS'resources'
p3869
I618
sS'its'
p3870
I645
sS'Green'
p3871
I2095
sS'making'
p3872
I2747
sS'issuing'
p3873
I2215
sS'Boyer'
p3874
I3366
sS'extreme'
p3875
I3367
sS'39'
p3876
I3368
sS'engage'
p3877
I907
sS'Mixte'
p3878
I1316
sS'Chinese'
p3879
I3369
sS'33'
p3880
I3370
sS'32'
p3881
I3371
sS'31'
p3882
I3372
sS'30'
p3883
I3373
sS'37'
p3884
I3374
sS'27.1'
p3885
I4756
sS'35'
p3886
I3375
sS'leaving'
p3887
I4548
sS'engine'
p3888
I4127
sS'suggests'
p3889
I3244
sS'Vietnam'
p3890
I2966
sS'Sachs'
p3891
I1658
sS'insulin'
p3892
I912
sS'Motor'
p3893
I4549
sS'Big'
p3894
I3780
sS'opinion'
p3895
I913
sS'residents'
p3896
I914
sS'gene'
p3897
I2100
sS'makes'
p3898
I915
sS'maker'
p3899
I916
sS'involves'
p3900
I917
sS'Economic'
p3901
I3252
sS'named'
p3902
I3377
sS'debts'
p3903
I2540
sS'Brothers'
p3904
I4758
sS'deputy'
p3905
I3263
sS'win'
p3906
I2102
sS'Robert'
p3907
I4552
sS'7.55'
p3908
I919
sS'baskets'
p3909
I3378
sS'41.60'
p3910
I4553
sS'decrease'
p3911
I3379
sS'privately'
p3912
I3380
sS'motor'
p3913
I4554
sS'Brazilian'
p3914
I3381
sS'Fla.'
p3915
I3121
sS'apply'
p3916
I4555
sS'complex'
p3917
I3830
sS'recapitalization'
p3918
I1269
sS'standing'
p3919
I921
sS'Trifari'
p3920
I2754
sS'use'
p3921
I4556
sS'fee'
p3922
I4557
sS'from'
p3923
I4558
sS'consumption'
p3924
I4559
sS'failed'
p3925
I708
sS'142.85'
p3926
I4561
sS'illegal'
p3927
I925
sS'Hun'
p3928
I4562
sS'live'
p3929
I1511
sS'flat'
p3930
I4274
sS'next'
p3931
I926
sS'few'
p3932
I4563
sS'examination'
p3933
I4564
sS'Fe'
p3934
I3383
sS'year-ago'
p3935
I3384
sS'timetable'
p3936
I4565
sS'themselves'
p3937
I3385
sS'panel'
p3938
I2109
sS'USX'
p3939
I3541
sS'historically'
p3940
I2110
sS'reflects'
p3941
I2111
sS'sort'
p3942
I4567
sS'bureaucracy'
p3943
I2112
sS'Lane'
p3944
I4568
sS'1/4'
p3945
I2113
sS'journalists'
p3946
I4569
sS'Mulford'
p3947
I929
sS'Appropriations'
p3948
I2114
sS'started'
p3949
I2115
sS'trait'
p3950
I3386
sS'inclined'
p3951
I4570
sS'equity'
p3952
I710
sS'benchmark'
p3953
I3329
sS'Wednesday'
p3954
I2118
sS'S&P'
p3955
I3387
sS'1/8'
p3956
I3331
sS'dealings'
p3957
I930
sS'S&L'
p3958
I3388
sS'guarantees'
p3959
I1989
sS'sharply'
p3960
I932
sS'8'
p3961
I3184
sS'filings'
p3962
I2091
sS'compromise'
p3963
I1276
sS'DeSoto'
p3964
I3783
sS'boards'
p3965
I3585
sS'majority'
p3966
I3152
sS'account'
p3967
I3389
sS'excellent'
p3968
I3681
sS'animals'
p3969
I888
sS'announcing'
p3970
I2121
sS'this'
p3971
I933
sS'ride'
p3972
I2122
sS'stations'
p3973
I3390
sS'stroke'
p3974
I4571
sS'recession'
p3975
I2124
sS'anywhere'
p3976
I2032
sS'obvious'
p3977
I3391
sS'publications'
p3978
I902
sS'uses'
p3979
I1975
sS'December'
p3980
I3586
sS'industrial'
p3981
I3392
sS'meet'
p3982
I2126
sS'closing'
p3983
I3393
sS'drops'
p3984
I2127
sS'Technology'
p3985
I2732
sS'F.'
p3986
I3394
sS'dropped'
p3987
I3986
sS'control'
p3988
I2128
sS'Prime'
p3989
I4572
sS'Israeli'
p3990
I2129
sS'120-day'
p3991
I4573
sS'Northern'
p3992
I4574
sS'do'
p3993
I1321
sS'process'
p3994
I937
sS'discussed'
p3995
I4195
sS'proportions'
p3996
I3395
sS'0.2'
p3997
I4575
sS'0.5'
p3998
I2312
sS'purposes'
p3999
I938
sS'pieces'
p4000
I939
sS'high'
p4001
I940
sS'effectively'
p4002
I3396
sS'Mr.'
p4003
I2130
sS'reserves'
p4004
I3397
sS'pulling'
p4005
I2131
sS'recognized'
p4006
I2340
sS'employs'
p4007
I3398
sS'sought'
p4008
I2133
sS'Party'
p4009
I4578
sS'voice'
p4010
I3663
sS'calculated'
p4011
I1305
sS'Laidig'
p4012
I4579
sS'stadiums'
p4013
I4299
sS'sit'
p4014
I4580
sS'protect'
p4015
I3802
sS'six'
p4016
I4581
sS'information'
p4017
I3992
sS'arrangement'
p4018
I2136
sS'regions'
p4019
I3401
sS'responsibilities'
p4020
I3402
sS'Paper'
p4021
I2970
sS'animal'
p4022
I944
sS'instead'
p4023
I4584
sS'Walter'
p4024
I1527
sS'panic'
p4025
I4585
sS'butterfat'
p4026
I3983
sS'airline'
p4027
I2971
sS'watch'
p4028
I3784
sS'Nissan'
p4029
I3405
sS'testimony'
p4030
I1726
sS'Red'
p4031
I4347
sS'3'
p4032
I457
sS'Domenici'
p4033
I1823
sS'maturities'
p4034
I3399
sS'Terms'
p4035
I4588
sS'engineering'
p4036
I493
sS'eyes'
p4037
I2812
sS'owns'
p4038
I2286
sS'physical'
p4039
I4141
sS'balloonists'
p4040
I1070
sS'light'
p4041
I4589
sS'drafting'
p4042
I1361
sS'counter'
p4043
I947
sS'lines'
p4044
I3407
sS'Community'
p4045
I948
sS'One'
p4046
I949
sS'Oct.'
p4047
I950
sS'chief'
p4048
I3408
sS'Tennessee'
p4049
I3409
sS'allow'
p4050
I951
sS'Gramm-Rudman'
p4051
I4376
sS'looking'
p4052
I6
sS'divided'
p4053
I361
sS'3/4'
p4054
I1920
sS'Schramm'
p4055
I953
sS'holds'
p4056
I3400
sS'soggy'
p4057
I2144
sS'theft'
p4058
I3190
sS'producer'
p4059
I954
sS'institutional'
p4060
I3410
sS'manufactured'
p4061
I2963
sS'taxpayer'
p4062
I1830
sS'Smith'
p4063
I2145
sS'produced'
p4064
I957
sS'growers'
p4065
I4541
sS'own'
p4066
I4768
sS'including'
p4067
I2147
sS'directs'
p4068
I958
sS'135'
p4069
I3495
sS'during'
p4070
I1922
sS'permission'
p4071
I3187
sS'protests'
p4072
I1728
sS'year-earlier'
p4073
I960
sS'badges'
p4074
I4590
sS'industries'
p4075
I3412
sS'delay'
p4076
I943
sS'negotiated'
p4077
I3413
sS'soft-drink'
p4078
I1923
sS'Exchange'
p4079
I2151
sS'Saatchi'
p4080
I2152
sS'ships'
p4081
I4591
sS'labor'
p4082
I3414
sS'meantime'
p4083
I961
sS'newsprint'
p4084
I3877
sS'willing'
p4085
I3415
sS'stalled'
p4086
I962
sS'covered'
p4087
I4593
sS'holiday'
p4088
I4594
sS'More'
p4089
I4315
sS'pending'
p4090
I4595
sS'crash'
p4091
I4596
sS'greater'
p4092
I3417
sS'auto'
p4093
I2154
sS'practice'
p4094
I3544
sS'earn'
p4095
I2549
sS'Herbert'
p4096
I964
sS'cutting'
p4097
I3418
sS'courtroom'
p4098
I3419
sS'hands'
p4099
I2155
sS'front'
p4100
I2156
sS'Sony'
p4101
I728
sS'assets'
p4102
I3004
sS'investor'
p4103
I4599
sS'fled'
p4104
I4600
sS'capital-gains'
p4105
I3422
sS'Tator'
p4106
I715
sS'Guber-Peters'
p4107
I2157
sS'Supreme'
p4108
I2158
sS'fees'
p4109
I4327
sS'San'
p4110
I966
sS'Sam'
p4111
I967
sS'spinal'
p4112
I4199
sS'Roger'
p4113
I3923
sS'warned'
p4114
I3423
sS'countries'
p4115
I3789
sS'World'
p4116
I2282
sS'identified'
p4117
I3424
sS'Israel'
p4118
I1674
sS'merge'
p4119
I968
sS'Yetnikoff'
p4120
I969
sS"O'Kicki"
p4121
I2161
sS'fields'
p4122
I2551
sS'references'
p4123
I2975
sS'Fed'
p4124
I3426
sS'stock'
p4125
I3404
sS'eases'
p4126
I4604
sS'E.'
p4127
I3108
sS'dismissing'
p4128
I4583
sS'Statistics'
p4129
I2162
sS'From'
p4130
I1115
sS'Network'
p4131
I1117
sS'doing'
p4132
I973
sS'Mediterranean'
p4133
I3790
sS'Balloon'
p4134
I3427
sS'lawful'
p4135
I4605
sS'700'
p4136
I2163
sS'related'
p4137
I4606
sS'society'
p4138
I974
sS'designer'
p4139
I2165
sS'variety'
p4140
I2166
sS'Treasury'
p4141
I976
sS'dollar-denominated'
p4142
I3715
sS'our'
p4143
I4608
sS'80'
p4144
I4609
sS'salesman'
p4145
I3428
sS'IFI'
p4146
I2169
sS'special'
p4147
I2170
sS'85'
p4148
I4610
sS'giant'
p4149
I3179
sS"'"
p4150
I977
sS'entertainment'
p4151
I2171
sS'Corp.'
p4152
I1146
sS'dismissal'
p4153
I978
sS'bad'
p4154
I2553
sS'Genentech'
p4155
I1163
sS'strokes'
p4156
I1360
sS'rise'
p4157
I3642
sS'China'
p4158
I3430
sS'negotiable'
p4159
I1116
sS'charge'
p4160
I3935
sS'electronics'
p4161
I3431
sS'intervention'
p4162
I1732
sS'supports'
p4163
I4611
sS'red'
p4164
I3432
sS'thrifts'
p4165
I4612
sS'disclose'
p4166
I4613
sS'shut'
p4167
I979
sS'Kakita'
p4168
I3433
sS'Meek'
p4169
I980
sS'This'
p4170
I4614
sS'Judicial'
p4171
I3434
sS'troops'
p4172
I2738
sS'Fresca'
p4173
I3966
sS'Rubendall'
p4174
I4616
sS'ban'
p4175
I2554
sS'completely'
p4176
I2175
sS'2.50'
p4177
I4774
sS'tied'
p4178
I945
sS'latest'
p4179
I1910
sS'early'
p4180
I1699
sS'Senator'
p4181
I3435
sS'reporters'
p4182
I714
sS'business'
p4183
I1720
sS'additional'
p4184
I2347
sS'Directorate'
p4185
I3436
sS'allies'
p4186
I3437
sS'Nabisco'
p4187
I4201
sS'afternoon'
p4188
I2646
sS'dubbed'
p4189
I983
sS'Nikkei'
p4190
I3438
sS'recipes'
p4191
I3439
sS'area'
p4192
I1733
sS'diminished'
p4193
I2179
sS'Lawson'
p4194
I3994
sS'times'
p4195
I3689
sS'counterpart'
p4196
I2181
sS'riding'
p4197
I1032
sS'length'
p4198
I986
sS'pigs'
p4199
I987
sS'retain'
p4200
I3440
sS'secretary'
p4201
I1331
sS'stimulate'
p4202
I988
sS'destruction'
p4203
I2302
sS'degree'
p4204
I4546
sS'plastics'
p4205
I1230
sS'succeeds'
p4206
I2182
sS'third'
p4207
I2451
sS'Review'
p4208
I989
sS'2,000'
p4209
I3442
sS'Administration'
p4210
I3443
sS'unsupported'
p4211
I2184
sS'alleged'
p4212
I4204
sS'improving'
p4213
I2185
sS'galvanized'
p4214
I4617
sS'submit'
p4215
I156
sS'lagging'
p4216
I3446
sS'ties'
p4217
I946
sS'owner'
p4218
I991
sS'Sventek'
p4219
I3447
sS'1989'
p4220
I4184
sS'quality'
p4221
I2187
sS'owning'
p4222
I3448
sS'Ries'
p4223
I993
sS'ballot'
p4224
I1098
sS'vetoed'
p4225
I994
sS'management'
p4226
I2188
sS'North'
p4227
I4618
sS'Cohen'
p4228
I3276
sS'Citicorp'
p4229
I1734
sS'bears'
p4230
I2189
sS'constitution'
p4231
I4361
sS'achieved'
p4232
I4382
sS'system'
p4233
I997
sS'adopted'
p4234
I3739
sS'Coast'
p4235
I3449
sS'priority'
p4236
I4620
sS'their'
p4237
I4621
sS'attack'
p4238
I2192
sS'Coates'
p4239
I4622
sS'slide'
p4240
I2160
sS'ton'
p4241
I3743
sS'perfectly'
p4242
I2193
sS'emphasized'
p4243
I2298
sS'final'
p4244
I3754
sS'Association'
p4245
I3450
sS'back'
p4246
I268
sS'enforcement'
p4247
I998
sS'Lincoln'
p4248
I3451
sS'lot'
p4249
I1736
sS'big'
p4250
I3266
sS'shelf'
p4251
I4623
sS'doomed'
p4252
I4624
sS'exactly'
p4253
I2194
sS'Sider'
p4254
I3157
sS'anti-apartheid'
p4255
I3655
sS'environmental'
p4256
I3454
sS'chemicals'
p4257
I2195
sS'reflecting'
p4258
I4626
sS'manipulation'
p4259
I2196
sS'branches'
p4260
I3997
sS'overwhelming'
p4261
I2197
sS'discretionary'
p4262
I1318
sS'steel'
p4263
I1001
sS'loved'
p4264
I3456
sS'colleagues'
p4265
I1002
sS'hearings'
p4266
I4628
sS'bid'
p4267
I3267
sS'Metropolitan'
p4268
I1538
sS'minister'
p4269
I4131
sS'culture'
p4270
I1929
sS'Mass'
p4271
I4276
sS'submitted'
p4272
I2199
sS'claim'
p4273
I2200
sS'compensation'
p4274
I3457
sS'individual'
p4275
I3201
sS'11/16'
p4276
I1085
sS'bind'
p4277
I3406
sS'visited'
p4278
I3458
sS'Peter'
p4279
I4630
sS'steep'
p4280
I1351
sS'Imperial'
p4281
I3532
sS'creditors'
p4282
I3806
sS'result'
p4283
I170
sS'1.4'
p4284
I4631
sS'imaginative'
p4285
I3459
sS'1.6'
p4286
I4633
sS'1.7'
p4287
I4634
sS'1.1'
p4288
I4635
sS'1.2'
p4289
I4636
sS'1.3'
p4290
I4637
sS'unchanged'
p4291
I2205
sS'partnership'
p4292
I1007
sS'1.8'
p4293
I4638
sS'seaborne'
p4294
I1008
sS'comfortable'
p4295
I3460
sS'corrupt'
p4296
I3793
sS'Other'
p4297
I2207
sS'Others'
p4298
I2542
sS'unlikely'
p4299
I3461
sS'38.5'
p4300
I1372
sS'Metromedia'
p4301
I4639
sS'close'
p4302
I1930
sS'turn'
p4303
I4023
sS'border'
p4304
I2209
sS'linked'
p4305
I4640
sS'viewed'
p4306
I1010
sS'Pao'
p4307
I3464
sS'Development'
p4308
I2210
sS'instrumentation'
p4309
I2211
sS'Oil'
p4310
I3465
sS'22.8'
p4311
I4757
sS'brokers'
p4312
I4420
sS'Goldman'
p4313
I3466
sS'After'
p4314
I4641
sS'able'
p4315
I3845
sS'Thanksgiving'
p4316
I3188
sS'arm'
p4317
I4387
sS'instance'
p4318
I2214
sS'concerns'
p4319
I3467
sS'declined'
p4320
I4388
sS'which'
p4321
I4642
sS'equaling'
p4322
I1012
sS'truck'
p4323
I2217
sS'2.4'
p4324
I4389
sS'Pierce'
p4325
I1013
sS'beyond'
p4326
I1853
sS'agenda'
p4327
I2141
sS'combat'
p4328
I4643
sS'collaboration'
p4329
I4644
sS'who'
p4330
I4645
sS'accountants'
p4331
I4646
sS'useful'
p4332
I2734
sS'eight'
p4333
I3471
sS'but'
p4334
I3608
sS'preliminary'
p4335
I3472
sS'sedan'
p4336
I3473
sS'Treaty'
p4337
I2980
sS'expired'
p4338
I3893
sS'payment'
p4339
I3474
sS'Pa.'
p4340
I3475
sS'Reserve'
p4341
I1016
sS'so-called'
p4342
I1017
sS'Microsoft'
p4343
I2338
sS'consequences'
p4344
I2220
sS'bargaining'
p4345
I835
sS'sweeping'
p4346
I1689
sS'nobody'
p4347
I3453
sS'Ultimately'
p4348
I2306
sS'Some'
p4349
I1446
sS'MCA'
p4350
I1020
sS'counted'
p4351
I952
sS'looked'
p4352
I3909
sS'N.V.'
p4353
I4181
sS'proceedings'
p4354
I3912
sS'construction'
p4355
I1126
sS'mechanical'
p4356
I2908
sS'normally'
p4357
I3479
sS'Saturday'
p4358
I3480
sS'fact'
p4359
I1022
sS'goals'
p4360
I4649
sS'impression'
p4361
I2224
sS'emerging'
p4362
I2225
sS'Blair'
p4363
I1932
sS'chances'
p4364
I4650
sS'agreed'
p4365
I4651
sS'sent'
p4366
I885
sS'Chemical'
p4367
I4652
sS'destroy'
p4368
I436
sS'Al'
p4369
I2059
sS'Under'
p4370
I1025
sS'portfolio'
p4371
I3482
sS'fear'
p4372
I4653
sS'feat'
p4373
I4654
sS'610'
p4374
I612
sS'decade'
p4375
I1027
sS'staff'
p4376
I3483
sS'answer'
p4377
I2442
sS'bottling'
p4378
I4657
sS'promote'
p4379
I4208
sS'grabbed'
p4380
I3484
sS'earned'
p4381
I2229
sS'holder'
p4382
I4050
sS'('
p4383
I2230
sS'specified'
p4384
I3321
sS'fans'
p4385
I3205
sS'controls'
p4386
I3485
sS'should'
p4387
I1030
sS'terminal'
p4388
I1509
sS'loafers'
p4389
I3486
sS'bases'
p4390
I2231
sS'candidates'
p4391
I4658
sS'York'
p4392
I3487
sS'employee'
p4393
I2232
sS'employed'
p4394
I2233
sS'he'
p4395
I2356
sS'local'
p4396
I4659
sS'secretaries'
p4397
I1033
sS'nonunion'
p4398
I4660
sS'Coke'
p4399
I2749
sS'regularly'
p4400
I3488
sS'move'
p4401
I955
sS'means'
p4402
I2108
sS'beat'
p4403
I3489
sS'Appleyard'
p4404
I3490
sS'overall'
p4405
I2234
sS'prohibition'
p4406
I1037
sS'120'
p4407
I2235
sS'joint'
p4408
I2236
sS'122'
p4409
I2237
sS'made'
p4410
I4783
sS'Newport'
p4411
I2238
sS'125'
p4412
I3998
sS'joins'
p4413
I3999
sS'deputies'
p4414
I2029
sS'timing'
p4415
I3491
sS'tactics'
p4416
I4784
sS'THE'
p4417
I4664
sS'argues'
p4418
I2766
sS'procedures'
p4419
I2242
sS'Once'
p4420
I1038
sS'following'
p4421
I2094
sS'processes'
p4422
I2244
sS'amid'
p4423
I3700
sS'committees'
p4424
I1554
sS'initial'
p4425
I1588
sS'trucks'
p4426
I4297
sS'course'
p4427
I373
sS'Sullivan'
p4428
I4666
sS'approach'
p4429
I3493
sS'areas'
p4430
I3492
sS'names'
p4431
I812
sS'taxes'
p4432
I1040
sS'teams'
p4433
I3494
sS'street-corner'
p4434
I4210
sS'stuff'
p4435
I1042
sS'Both'
p4436
I795
sS'Jones'
p4437
I813
sS'insist'
p4438
I4114
sS'wholesale'
p4439
I4211
sS'taxed'
p4440
I1044
sS'fixed'
p4441
I1582
sS'view'
p4442
I4667
sS'Burnham'
p4443
I4668
sS'adverse'
p4444
I4714
sS'temporarily'
p4445
I1045
sS'accepted'
p4446
I4178
sS'acquired'
p4447
I4669
sS'national'
p4448
I3496
sS'8.63'
p4449
I3940
sS'manufacture'
p4450
I2028
sS'Traders'
p4451
I3497
sS'mentioned'
p4452
I2150
sS'RATE'
p4453
I3498
sS'computer'
p4454
I4057
sS'usefulness'
p4455
I2251
sS'enhanced'
p4456
I3499
sS'agricultural'
p4457
I3411
sS'operated'
p4458
I2253
sS'audits'
p4459
I3500
sS'Marunouchi'
p4460
I2254
sS'expects'
p4461
I3706
sS'White'
p4462
I4001
sS'puts'
p4463
I2569
sS'Wisconsin'
p4464
I2255
sS'attempting'
p4465
I3501
sS'apparently'
p4466
I3463
sS'2.25'
p4467
I2083
sS'Britain'
p4468
I4670
sS'brunt'
p4469
I3502
sS'forest-products'
p4470
I3503
sS'discounts'
p4471
I3504
sS'state'
p4472
I4080
sg76
I838
sS'closed'
p4473
I4671
sS'routine'
p4474
I3506
sS'tens'
p4475
I2257
sS'nuclear'
p4476
I1052
sS'July'
p4477
I3508
sS'Republican'
p4478
I1054
sS'frustrated'
p4479
I4672
sS'sold'
p4480
I4397
sS'speed'
p4481
I1691
sS'bought'
p4482
I4673
sS'comparable'
p4483
I2260
sS'attention'
p4484
I4398
sS'Sen.'
p4485
I2262
sS'ability'
p4486
I4674
sS'opening'
p4487
I4675
sS'importance'
p4488
I2263
sS'single-A-2'
p4489
I1057
sS'court'
p4490
I1536
sS'Hartt'
p4491
I1059
sS'agencies'
p4492
I4676
sS'interfere'
p4493
I2264
sS'efficiency'
p4494
I2265
sS'job'
p4495
I4677
sS'takeover'
p4496
I4678
sS'acquisitions'
p4497
I635
sS'key'
p4498
I2266
sS'calling'
p4499
I1566
sS'less'
p4500
I1084
sS'approval'
p4501
I2268
sS'lawsuit'
p4502
I1661
sS'problem'
p4503
I1133
sS'declining'
p4504
I4679
sS'thumb'
p4505
I375
sS'association'
p4506
I3094
sS'hits'
p4507
I2270
sS'figured'
p4508
I1062
sS'defense'
p4509
I4384
sS'limits'
p4510
I2271
sS'always'
p4511
I651
sS'career'
p4512
I2272
sS'minutes'
p4513
I3612
sS'taking'
p4514
I3511
sS'equal'
p4515
I3512
sS'minds'
p4516
I2273
sS'pulp'
p4517
I2421
sS'liquidating'
p4518
I3514
sS'succeed'
p4519
I4400
sS'grain'
p4520
I4680
sS'heart'
p4521
I4551
sS'scuttle'
p4522
I3208
sS'Diego'
p4523
I3808
sS'adjusted'
p4524
I1065
sS'reacting'
p4525
I1547
sS'opposition'
p4526
I4401
sS'Her'
p4527
I1066
sS'124,875'
p4528
I3516
sS'ca'
p4529
I1067
sS'resulting'
p4530
I911
sS'wonder'
p4531
I2879
sS'CIA'
p4532
I1134
sS'packaging'
p4533
I4682
sS'Los'
p4534
I2276
sS'Finally'
p4535
I4683
sS'maximize'
p4536
I2277
sS'service-industry'
p4537
I1533
sS'clash'
p4538
I3873
sS'table'
p4539
I4684
sS'Keeping'
p4540
I4046
sS'Temple'
p4541
I3517
sS'Interest'
p4542
I4260
sS'600'
p4543
I1743
sS'8.1'
p4544
I1069
sS'pound'
p4545
I766
sS'Rewards'
p4546
I3518
sS'Muramatsu'
p4547
I3519
sS'remarkable'
p4548
I3924
sS'exposure'
p4549
I1153
sS'addition'
p4550
I2278
sS'commodities'
p4551
I4686
sS'trademark'
p4552
I4687
sS'ended'
p4553
I1543
sS'expressed'
p4554
I703
sS'arbitrator'
p4555
I4688
sS'permanent'
p4556
I4592
sS'agreements'
p4557
I4689
sS'Colorado'
p4558
I163
sS'indicators'
p4559
I3520
sS'proposal'
p4560
I3521
sS'2001'
p4561
I3337
sS'Toronto'
p4562
I4212
sS'legislature'
p4563
I735
sS'Exxon'
p4564
I4691
sS'controlled'
p4565
I2279
sS'Center'
p4566
I3523
sS'powerful'
p4567
I2183
sS'Among'
p4568
I3801
sS'am'
p4569
I559
sS'sufficient'
p4570
I4692
sS'prospects'
p4571
I736
sS'scrutiny'
p4572
I4694
sS'Paragould'
p4573
I3525
sS'Benson'
p4574
I4690
sS'ensuring'
p4575
I4696
sS'deep'
p4576
I2987
sS'suspension'
p4577
I378
sS'smoking'
p4578
I2283
sS'general'
p4579
I2988
sS'Navigation'
p4580
I4699
sS'present'
p4581
I4700
sS'And'
p4582
I2284
sS'Sept.'
p4583
I1472
sS'bipartisan'
p4584
I2979
sS'Force'
p4585
I4701
sS'survey'
p4586
I774
sS'dictation'
p4587
I2132
sS'need'
p4588
I2208
sS'appropriations'
p4589
I4703
sS'appearance'
p4590
I3528
sS'examine'
p4591
I2989
sS'value'
p4592
I3529
sS'General'
p4593
I3530
sS'Gen-Probe'
p4594
I775
sS'Cincinnati'
p4595
I1998
sS'PLC'
p4596
I4705
sS'credit-card'
p4597
I3803
sS'Taiwan'
p4598
I4706
sS'immoral'
p4599
I2138
sS'at'
p4600
I564
sS'supply'
p4601
I4707
sS'group'
p4602
I2770
sS'examiner'
p4603
I2288
sS'almost'
p4604
I3531
sS'intangible'
p4605
I89
sS'thus'
p4606
I4709
sS'profitability'
p4607
I3656
sS'clearly'
p4608
I1009
sS'helped'
p4609
I3533
sS'Square'
p4610
I4485
sS'examined'
p4611
I2289
sS'audiences'
p4612
I4710
sS'watched'
p4613
I565
sS'chambers'
p4614
I4386
sS'partner'
p4615
I3536
sS'You'
p4616
I2291
sS'Beach'
p4617
I3537
sS'Medical'
p4618
I1074
sS'parent'
p4619
I2885
sS'per-share'
p4620
I1591
sS'beats'
p4621
I2365
sS'perhaps'
p4622
I4711
sS'began'
p4623
I4301
sS'Hunter'
p4624
I3539
sS'Bear'
p4625
I2293
sS'proceeds'
p4626
I2294
sS'member'
p4627
I4713
sS'England'
p4628
I2320
sS'when'
p4629
I3911
sS'Computer'
p4630
I3805
sS'largest'
p4631
I4715
sS'units'
p4632
I4716
sS'party'
p4633
I2296
sS'negotiate'
p4634
I4446
sS'gets'
p4635
I4717
sS'start'
p4636
I4566
sS'difficult'
p4637
I4718
sS'Real'
p4638
I566
sS'material'
p4639
I4597
sS'JCP'
p4640
I3545
sS'denominations'
p4641
I3238
sS'Third'
p4642
I4719
sS'4.4'
p4643
I4218
sS'Jenrette'
p4644
I2219
sS'reporting'
p4645
I3546
sS'disagree'
p4646
I4319
sS'effect'
p4647
I2297
sS'exceeds'
p4648
I1352
sS'Airport'
p4649
I3547
sS'feet'
p4650
I4326
sS'II'
p4651
I3548
sS'frequently'
p4652
I2299
sS'strategic'
p4653
I3445
sS'Mitchell'
p4654
I2300
sS'collar'
p4655
I4333
sS'expand'
p4656
I1078
sS'keep'
p4657
I2180
sS'III'
p4658
I3695
sS'Houston'
p4659
I4721
sS'peoples'
p4660
I4440
sS'transaction'
p4661
I2303
sS'off'
p4662
I1080
sS'center'
p4663
I3550
sS'fully'
p4664
I1081
sS'Senate'
p4665
I3551
sS'whole'
p4666
I4722
sS'49'
p4667
I3614
sS'well'
p4668
I2304
sS'agency'
p4669
I3842
sS'States'
p4670
I4723
sS'patterns'
p4671
I1898
sS'testify'
p4672
I1858
sS'1'
p4673
I3990
sS'corporation'
p4674
I3616
sS'position'
p4675
I1903
sS'decliners'
p4676
I4725
sS'muscle'
p4677
I1906
sS'Shearson'
p4678
I4726
sS'MacMillan'
p4679
I4727
sS'usual'
p4680
I3553
sS'routinely'
p4681
I4728
sS'Using'
p4682
I4006
sS'heavily'
p4683
I4729
sS'increasingly'
p4684
I2305
sS'4.9'
p4685
I4222
sS'half'
p4686
I1552
sS'domestic'
p4687
I3556
sS'keeping'
p4688
I617
sS'Hyundai'
p4689
I2995
sS'cheer'
p4690
I4456
sS'interim'
p4691
I1925
sS'books'
p4692
I975
sS'Chairman'
p4693
I2308
sS'insisting'
p4694
I3420
sS'joining'
p4695
I3169
sS'tough'
p4696
I3557
sS'rest'
p4697
I511
sS'Nicholas'
p4698
I4730
sS'Tower'
p4699
I4731
sS'mysterious'
p4700
I1438
sS'Volume'
p4701
I1144
sS'rapid'
p4702
I4732
sS'InfoCorp'
p4703
I4733
sS'ads'
p4704
I3558
sS'Far'
p4705
I4734
sS'residential'
p4706
I1086
sS'Company'
p4707
I1087
sS'drive'
p4708
I448
sS'regulatory'
p4709
I982
sS'deposits'
p4710
I2309
sS'bench'
p4711
I3560
sS'valuation'
p4712
I1128
sS'reasons'
p4713
I4409
sS'add'
p4714
I3561
sS'Credit'
p4715
I4695
sS'adoption'
p4716
I4736
sS'maintaining'
p4717
I2310
sS'gene-splicing'
p4718
I2589
sS'Despite'
p4719
I2311
sS'executive'
p4720
I3555
sS'5'
p4721
I4224
sS'tax'
p4722
I4576
sS'warrant'
p4723
I4424
sS'By'
p4724
I2314
sS'ought'
p4725
I3562
sS'resolved'
p4726
I3563
sS'tests'
p4727
I3564
sS'sick'
p4728
I4798
sS'provisions'
p4729
I4738
sS'government'
p4730
I1091
sS'admit'
p4731
I2274
sS'protesters'
p4732
I4739
sS'Drug'
p4733
I4450
sS'increases'
p4734
I1092
sS'Food'
p4735
I4455
sS'five'
p4736
I1978
sS'know'
p4737
I4740
sS'burden'
p4738
I2316
sS'press'
p4739
I4741
sS'immediately'
p4740
I2317
sS'oppression'
p4741
I1148
sS'Panhandle'
p4742
I4225
sS'prominent'
p4743
I2318
sS'loss'
p4744
I2319
sS'forcing'
p4745
I1750
sS'necessary'
p4746
I4472
sS'like'
p4747
I3566
sS'success'
p4748
I3567
sS'Pharmaceuticals'
p4749
I3809
sS'onerous'
p4750
I4219
sS'trillion'
p4751
I4033
sS'purchasing'
p4752
I3847
sS'appalling'
p4753
I3336
sS'extremely'
p4754
I3164
sS'admitted'
p4755
I3568
sS'loses'
p4756
I4742
sS'taxpayers'
p4757
I4743
sS'traders'
p4758
I4582
sS'clarinetist'
p4759
I4481
sS'have'
p4760
I3462
sS'lose'
p4761
I2325
sS'agents'
p4762
I744
sS'works'
p4763
I3569
sS'soft'
p4764
I3570
sS'LONDON'
p4765
I3534
sS'accessible'
p4766
I3571
sS'parity'
p4767
I4745
sS'indications'
p4768
I1097
sS'Bouygues'
p4769
I4489
sS'arbitrage'
p4770
I2327
sS'school'
p4771
I3645
sS'classical'
p4772
I575
sS'tumble'
p4773
I4747
sS'Sun'
p4774
I4748
sS'Section'
p4775
I4749
sS'authority'
p4776
I3572
sS'Mason'
p4777
I2329
sS'certain'
p4778
I558
sS'growth'
p4779
I4750
sS'Zayadi'
p4780
I3574
sS'recommendation'
p4781
I3575
sS'Jaguar'
p4782
I4228
sS'little'
p4783
I2809
sS'registrations'
p4784
I2159
sS'leery'
p4785
I2331
sS'recognition'
p4786
I1099
sS'Givens'
p4787
I3576
sS'trust'
p4788
I3810
sS'lead'
p4789
I4752
sS'Singapore'
p4790
I4753
sS'hot-air'
p4791
I2678
sS'broad'
p4792
I4520
sS'avoid'
p4793
I2066
sS'Sihanouk'
p4794
I1315
sS'Ifint'
p4795
I2332
sS'salaries'
p4796
I1102
sS'G-7'
p4797
I2044
sS'Shere'
p4798
I4754
sS'profitable'
p4799
I4465
sS'sustain'
p4800
I1764
sS'passion'
p4801
I1105
sS'assuming'
p4802
I3577
sS'filers'
p4803
I2334
sS'leader'
p4804
I4755
sS'?'
p4805
I2335
sS'desperate'
p4806
I2252
sS'demonstration'
p4807
I1379
sS'Kato'
p4808
I970
sS'expansion'
p4809
I2336
sS'outlets'
p4810
I1149
sS'pressure'
p4811
I1106
sS'host'
p4812
I3579
sS'expire'
p4813
I3580
sS'Times'
p4814
I2727
sS'although'
p4815
I3581
sS'accompanied'
p4816
I1107
sS'1.8340'
p4817
I3403
sS'loans'
p4818
I2105
sS'handling'
p4819
I757
sS'C.'
p4820
I2568
sS'gained'
p4821
I1109
sS'plastic'
p4822
I4035
sS'about'
p4823
I3583
sS'Wakeman'
p4824
I2783
sS'rare'
p4825
I4759
sS'carried'
p4826
I4760
sS'unwelcome'
p4827
I1747
sS'obligation'
p4828
I1580
sS'beef'
p4829
I3812
sS'shipping'
p4830
I4763
sS'surge'
p4831
I4764
sS'proposals'
p4832
I2712
sS'carries'
p4833
I4765
sS'carrier'
p4834
I4766
sS'Americans'
p4835
I4767
sS'bidders'
p4836
I1050
sS'Japan'
p4837
I3587
sS'introduced'
p4838
I3588
sS'subcompact'
p4839
I446
sS'stakes'
p4840
I2341
sS'alliance'
p4841
I2146
sS'letters'
p4842
I1114
sS'coverage'
p4843
I1753
sS'owe'
p4844
I4769
sS'Tass'
p4845
I4598
sS'warrants'
p4846
I4770
sS'nerves'
p4847
I4619
sS'Two'
p4848
I3591
sS'billions'
p4849
I3592
sS'getting'
p4850
I4761
sS'included'
p4851
I4232
sS'Internal'
p4852
I2343
sS'police'
p4853
I546
sS'been'
p4854
I3815
sS'female'
p4855
I3593
sS'registration'
p4856
I4772
sS'lovely'
p4857
I2578
sS'quickly'
p4858
I3816
sS'initially'
p4859
I4396
sS'Nakamura'
p4860
I2344
sS'fired'
p4861
I1562
sS'1986'
p4862
I3595
sS'1987'
p4863
I2174
sS'1984'
p4864
I4110
sS'prudent'
p4865
I3001
sS'1982'
p4866
I3597
sS'1983'
p4867
I3598
sS'1980'
p4868
I3599
sS'1981'
p4869
I3600
sS'transfer'
p4870
I4775
sS'lagged'
p4871
I2349
sS'1988'
p4872
I3601
sS'awarded'
p4873
I3602
sS'lost'
p4874
I2322
sS'dropping'
p4875
I3226
sS'try'
p4876
I892
sS'frustration'
p4877
I1120
sS'biggest'
p4878
I3603
sS'California'
p4879
I1950
sS'breeding'
p4880
I4776
sS'9.7'
p4881
I1121
sS'pretax'
p4882
I1122
sS'jealously'
p4883
I2525
sS'function'
p4884
I1123
sS'Kleinwort'
p4885
I4359
sS'certificate'
p4886
I824
sS'triggered'
p4887
I4778
sS'aircraft'
p4888
I3207
sS'funds'
p4889
I4779
sS'brand'
p4890
I3606
sS'Edelson'
p4891
I2352
sS'Paperboard'
p4892
I3607
sS'Detroit'
p4893
I4780
sS'volume'
p4894
I4781
sS'expected'
p4895
I3819
sS'lowered'
p4896
I2222
sS'wealthier'
p4897
I3609
sS'Liberty'
p4898
I2164
sS'money-fund'
p4899
I3610
sS'larger'
p4900
I999
sS'squeeze'
p4901
I4782
sS'signal'
p4902
I789
sS'crop'
p4903
I681
sS'Conn.-based'
p4904
I571
sS'U.S.A.'
p4905
I2453
sS'Greenwich'
p4906
I918
sS'Gold'
p4907
I4785
sS'whether'
p4908
I4786
sS'meeting'
p4909
I4787
sS'wife'
p4910
I1130
sS'smooth'
p4911
I1131
sS'signed'
p4912
I2358
sS'record'
p4913
I4788
sS'below'
p4914
I4789
sS'89'
p4915
I4607
sS'limit'
p4916
I2359
sS'ruling'
p4917
I4790
sS'invest'
p4918
I4238
sS'200,000'
p4919
I4791
sS'distribution'
p4920
I2269
sS'piece'
p4921
I2360
sS'issue'
p4922
I1862
sS'Insurance'
p4923
I3613
sS'urging'
p4924
I4681
sS'Asked'
p4925
I1015
sS'marketplace'
p4926
I2362
sS'devise'
p4927
I2363
sS'reservations'
p4928
I2364
sS'measure'
p4929
I2167
sS'Chevy'
p4930
I3796
sS'Utility'
p4931
I3774
sS'slowing'
p4932
I1138
sS'Biosource'
p4933
I768
sS'guy'
p4934
I1485
sS'Gillette'
p4935
I4792
sS'Electronics'
p4936
I4793
sS'education'
p4937
I2366
sS'margins'
p4938
I2168
sS'Containers'
p4939
I1139
sS'Conn.'
p4940
I3821
sS'compared'
p4941
I1140
sS"'ll"
p4942
I4794
sS'contest'
p4943
I2367
sS'46'
p4944
I3615
sS'StatesWest'
p4945
I4724
sS'44'
p4946
I3617
sS'45'
p4947
I3618
sS'42'
p4948
I3619
sS'detail'
p4949
I3620
sS'40'
p4950
I3621
sS'lately'
p4951
I1143
sS'Fuji'
p4952
I4795
sS'commitments'
p4953
I4097
sS'book'
p4954
I4796
sS'Five'
p4955
I4797
sS'details'
p4956
I1145
sS'Besides'
p4957
I2370
sS'compete'
p4958
I1155
sS'out'
p4959
I3622
sS'scandal'
p4960
I3382
sS'reckless'
p4961
I1147
sS'7/16'
p4962
I4744
sS'Hees'
p4963
I2371
sS'February'
p4964
I2328
sS'kinds'
p4965
I4799
sS'Like'
p4966
I2372
sS'completes'
p4967
I3455
sS'shredded'
p4968
I4800
sS'class'
p4969
I4647
sS'ultimately'
p4970
I4015
sS'contends'
p4971
I4801
sS'March'
p4972
I4306
sS'April'
p4973
I3623
sS'chance'
p4974
I1150
sS'income-tax'
p4975
I4802
sS'UAW'
p4976
I4530
sS'Act'
p4977
I3624
sS'Weaver'
p4978
I4803
sS'gap'
p4979
I4804
sS'disclosure'
p4980
I2765
sS'4.25'
p4981
I4805
sS'South'
p4982
I1152
sS'Stewart'
p4983
I3625
sS'RTC'
p4984
I2787
sS'using'
p4985
I1701
sS'Ashurst'
p4986
I3626
sS'factors'
p4987
I4016
sS'earthquake'
p4988
I2728
sS'rule'
p4989
I1154
sS'original'
p4990
I3627
sS'portion'
p4991
I2378
sS'students'
p4992
I2998
sS'Cambodian'
p4993
I4806
sS'biotechnology'
p4994
I3628
sS'processors'
p4995
I1810
sS'defend'
p4996
I3429
sS'representative'
p4997
I754
ssS'words'
p4998
(lp4999
g196
ag197
ag198
ag199
ag200
ag201
ag202
ag203
ag204
ag205
ag206
ag207
ag208
ag209
ag210
ag211
ag212
ag213
ag214
ag215
ag216
ag217
ag218
ag219
ag220
ag221
ag222
ag223
ag224
ag225
ag226
ag227
ag228
ag229
ag230
ag231
ag232
ag233
ag234
ag235
ag236
ag237
ag238
ag239
ag240
ag241
ag242
ag243
ag244
ag245
ag246
ag247
ag248
ag249
ag250
ag251
ag252
ag253
ag254
ag255
ag256
ag257
ag258
ag259
ag260
ag261
ag262
ag263
ag264
ag265
ag266
ag267
ag268
ag269
ag270
ag271
ag272
ag273
ag274
ag275
ag276
ag277
ag278
ag279
ag280
ag281
ag282
ag283
ag284
ag285
ag286
ag287
ag288
ag289
ag290
ag291
ag292
ag293
ag294
ag295
ag296
ag297
ag298
ag299
ag300
ag301
ag302
ag303
ag304
ag305
ag306
ag307
ag308
ag309
ag310
ag311
ag312
ag313
ag314
ag315
ag316
ag317
ag318
ag319
ag320
ag321
ag322
ag323
ag324
ag325
ag326
ag327
ag328
ag329
ag330
ag331
ag332
ag333
ag334
ag335
ag336
ag337
ag338
ag339
ag340
ag341
ag342
ag343
ag344
ag345
ag346
ag347
ag348
ag349
ag350
ag351
ag352
ag353
ag354
ag355
ag356
ag357
ag358
ag359
ag360
ag361
ag362
ag363
ag364
ag365
ag366
ag367
ag368
ag369
ag370
ag371
ag372
ag373
ag374
ag375
ag376
ag377
ag378
ag379
ag380
ag381
ag382
ag383
ag384
ag385
ag386
ag387
ag388
ag389
ag390
ag391
ag392
ag393
ag394
ag395
ag396
ag397
ag398
ag399
ag400
ag401
ag402
ag403
ag404
ag405
ag406
ag407
ag408
ag409
ag410
ag411
ag412
ag413
ag414
ag415
ag416
ag417
ag418
ag419
ag420
ag421
ag422
ag423
ag424
ag425
ag426
ag427
ag428
ag429
ag430
ag431
ag432
ag433
ag434
ag435
ag436
ag437
ag438
ag439
ag440
ag441
ag442
ag443
ag444
ag445
ag446
ag447
ag448
ag449
ag450
ag451
ag452
ag453
ag454
ag455
ag456
ag457
ag458
ag459
ag460
ag461
ag462
ag463
ag464
ag465
ag466
ag467
ag468
ag469
ag470
ag471
ag472
ag473
ag474
ag475
ag476
ag477
ag478
ag479
ag480
ag481
ag482
ag483
ag484
ag485
ag486
ag487
ag488
ag489
ag490
ag491
ag492
ag493
ag494
ag495
ag496
ag497
ag498
ag499
ag500
ag501
ag502
ag503
ag504
ag505
ag506
ag507
ag508
ag509
ag510
ag511
ag512
ag513
ag514
ag515
ag516
ag517
ag518
ag519
ag520
ag521
ag522
ag523
ag524
ag525
ag526
ag527
ag528
ag529
ag530
ag531
ag532
ag533
ag534
ag535
ag536
ag537
ag538
ag539
ag540
ag541
ag542
ag543
ag544
ag545
ag546
ag547
ag548
ag549
ag550
ag551
ag552
ag553
ag554
ag555
ag556
ag557
ag558
ag559
ag560
ag561
ag562
ag563
ag564
ag565
ag566
ag567
ag568
ag569
ag570
ag571
ag572
ag573
ag574
ag575
ag576
ag577
ag578
ag579
ag580
ag581
ag582
ag583
ag584
ag585
ag586
ag587
ag588
ag589
ag590
ag591
ag592
ag593
ag594
ag595
ag596
ag597
ag598
ag599
ag600
ag601
ag602
ag603
ag604
ag605
ag606
ag607
ag608
ag609
ag610
ag611
ag612
ag613
ag614
ag615
ag616
ag617
ag618
ag619
ag620
ag621
ag622
ag623
ag624
ag625
ag626
ag627
ag628
ag629
ag630
ag631
ag632
ag633
ag634
ag635
ag636
ag637
ag638
ag639
ag640
ag641
ag642
ag643
ag644
ag645
ag646
ag647
ag648
ag649
ag650
ag651
ag652
ag653
ag654
ag655
ag656
ag657
ag658
ag659
ag660
ag661
ag662
ag663
ag664
ag665
ag666
ag667
ag668
ag669
ag670
ag671
ag672
ag673
ag674
ag675
ag676
ag677
ag678
ag679
ag680
ag681
ag682
ag683
ag684
ag685
ag686
ag687
ag688
ag689
ag690
ag691
ag692
ag693
ag694
ag695
ag696
ag697
ag698
ag699
ag700
ag701
ag702
ag703
ag704
ag705
ag706
ag707
ag708
ag709
ag710
ag711
ag712
ag713
ag714
ag715
ag716
ag717
ag718
ag719
ag720
ag721
ag722
ag723
ag724
ag725
ag726
ag727
ag728
ag729
ag730
ag731
ag732
ag733
ag734
ag735
ag736
ag737
ag738
ag739
ag740
ag741
ag742
ag743
ag744
ag745
ag746
ag747
ag748
ag749
ag750
ag751
ag752
ag753
ag754
ag755
ag756
ag757
ag758
ag759
ag760
ag761
ag762
ag763
ag764
ag765
ag766
ag767
ag768
ag769
ag770
ag771
ag772
ag773
ag774
ag775
ag776
ag777
ag778
ag779
ag780
ag781
ag782
ag783
ag784
ag785
ag786
ag787
ag788
ag789
ag790
ag791
ag792
ag793
ag794
ag795
ag796
ag797
ag798
ag799
ag800
ag801
ag802
ag803
ag804
ag805
ag806
ag807
ag808
ag809
ag810
ag811
ag812
ag813
ag814
ag815
ag816
ag817
ag818
ag819
ag820
ag821
ag822
ag823
ag824
ag825
ag826
ag827
ag828
ag829
ag830
ag831
ag832
ag833
ag834
ag835
ag836
ag837
ag838
ag839
ag840
ag841
ag842
ag843
ag844
ag845
ag846
ag847
ag848
ag849
ag850
ag851
ag852
ag853
ag854
ag855
ag856
ag857
ag858
ag859
ag860
ag861
ag862
ag863
ag864
ag865
ag866
ag867
ag868
ag869
ag870
ag871
ag872
ag873
ag874
ag875
ag876
ag877
ag878
ag879
ag880
ag881
ag882
ag883
ag884
ag885
ag886
ag887
ag888
ag889
ag890
ag891
ag892
ag893
ag894
ag895
ag896
ag897
ag898
ag899
ag900
ag901
ag902
ag903
ag904
ag905
ag906
ag907
ag908
ag909
ag910
ag911
ag912
ag913
ag914
ag915
ag916
ag917
ag918
ag919
ag920
ag921
ag922
ag923
ag924
ag925
ag926
ag927
ag928
ag929
ag930
ag931
ag932
ag933
ag934
ag935
ag936
ag937
ag938
ag939
ag940
ag941
ag942
ag943
ag944
ag945
ag946
ag947
ag948
ag949
ag950
ag951
ag952
ag953
ag954
ag955
ag71
ag956
ag957
ag958
ag959
ag960
ag961
ag962
ag963
ag964
ag965
ag966
ag967
ag968
ag969
ag970
ag971
ag972
ag973
ag974
ag975
ag976
ag977
ag978
ag979
ag980
ag981
ag982
ag983
ag984
ag985
ag986
ag987
ag988
ag989
ag990
ag991
ag992
ag993
ag994
ag995
ag996
ag997
ag998
ag999
ag1000
ag1001
ag1002
ag1003
ag1004
ag1005
ag1006
ag1007
ag1008
ag1009
ag1010
ag1011
ag1012
ag1013
ag1014
ag1015
ag1016
ag1017
ag1018
ag1019
ag1020
ag1021
ag1022
ag1023
ag1024
ag1025
ag1026
ag1027
ag1028
ag1029
ag1030
ag1031
ag1032
ag1033
ag1034
ag1035
ag1036
ag1037
ag1038
ag1039
ag1040
ag1041
ag1042
ag1043
ag1044
ag1045
ag1046
ag1047
ag1048
ag1049
ag1050
ag1051
ag1052
ag1053
ag1054
ag1055
ag1056
ag1057
ag1058
ag1059
ag1060
ag1061
ag1062
ag1063
ag1064
ag1065
ag1066
ag1067
ag1068
ag1069
ag1070
ag1071
ag1072
ag1073
ag1074
ag1075
ag1076
ag1077
ag1078
ag1079
ag1080
ag1081
ag1082
ag1083
ag1084
ag1085
ag1086
ag1087
ag1088
ag1089
ag1090
ag1091
ag1092
ag1093
ag1094
ag1095
ag1096
ag1097
ag1098
ag1099
ag1100
ag1101
ag1102
ag1103
ag1104
ag1105
ag1106
ag1107
ag1108
ag1109
ag1110
ag1111
ag1112
ag1113
ag1114
ag1115
ag1116
ag1117
ag1118
ag1119
ag1120
ag1121
ag1122
ag1123
ag1124
ag1125
ag1126
ag1127
ag1128
ag1129
ag1130
ag1131
ag1132
ag1133
ag1134
ag1135
ag1136
ag1137
ag1138
ag1139
ag1140
ag1141
ag1142
ag1143
ag1144
ag1145
ag1146
ag1147
ag1148
ag1149
ag1150
ag1151
ag1152
ag1153
ag1154
ag1155
ag1156
ag1157
ag1158
ag1159
ag1160
ag1161
ag1162
ag1163
ag1164
ag1165
ag1166
ag1167
ag1168
ag1169
ag1170
ag1171
ag1172
ag1173
ag1174
ag1175
ag1176
ag1177
ag1178
ag1179
ag1180
ag1181
ag1182
ag1183
ag1184
ag1185
ag1186
ag1187
ag1188
ag1189
ag1190
ag1191
ag1192
ag1193
ag1194
ag1195
ag1196
ag1197
ag1198
ag1199
ag1200
ag1201
ag1202
ag1203
ag1204
ag1205
ag1206
ag1207
ag1208
ag1209
ag1210
ag1211
ag1212
ag1213
ag1214
ag1215
ag1216
ag1217
ag1218
ag1219
ag1220
ag1221
ag1222
ag1223
ag1224
ag1225
ag1226
ag1227
ag1228
ag1229
ag1230
ag1231
ag1232
ag1233
ag1234
ag1235
ag1236
ag1237
ag1238
ag1239
ag1240
ag1241
ag1242
ag1243
ag1244
ag1245
ag1246
ag1247
ag1248
ag1249
ag1250
ag1251
ag1252
ag1253
ag1254
ag1255
ag1256
ag1257
ag1258
ag1259
ag1260
ag1261
ag1262
ag1263
ag1264
ag1265
ag1266
ag1267
ag1268
ag1269
ag1270
ag1271
ag1272
ag1273
ag1274
ag1275
ag1276
ag1277
ag1278
ag1279
ag1280
ag1281
ag1282
ag1283
ag1284
ag1285
ag1286
ag1287
ag1288
ag1289
ag1290
ag1291
ag1292
ag1293
ag1294
ag1295
ag1296
ag1297
ag1298
ag1299
ag1300
ag1301
ag1302
ag1303
ag1304
ag1305
ag1306
ag1307
ag1308
ag1309
ag1310
ag1311
ag1312
ag1313
ag1314
ag1315
ag1316
ag1317
ag1318
ag1319
ag1320
ag1321
ag1322
ag1323
ag1324
ag1325
ag1326
ag1327
ag1328
ag1329
ag1330
ag1331
ag1332
ag1333
ag1334
ag1335
ag1336
ag1337
ag1338
ag1339
ag1340
ag1341
ag1342
ag1343
ag1344
ag1345
ag1346
ag1347
ag1348
ag1349
ag1350
ag1351
ag1352
ag1353
ag1354
ag1355
ag1356
ag1357
ag1358
ag1359
ag1360
ag1361
ag1362
ag1363
ag1364
ag1365
ag1366
ag1367
ag1368
ag1369
ag1370
ag1371
ag1372
ag1373
ag1374
ag1375
ag1376
ag1377
ag1378
ag1379
ag1380
ag1381
ag1382
ag1383
ag1384
ag1385
ag1386
ag1387
ag1388
ag1389
ag1390
ag1391
ag1392
ag1393
ag1394
ag1395
ag1396
ag1397
ag1398
ag1399
ag1400
ag1401
ag1402
ag1403
ag1404
ag1405
ag1406
ag1407
ag1408
ag1409
ag1410
ag1411
ag1412
ag1413
ag1414
ag1415
ag1416
ag1417
ag1418
ag1419
ag1420
ag1421
ag1422
ag1423
ag1424
ag1425
ag1426
ag1427
ag1428
ag1429
ag1430
ag1431
ag1432
ag1433
ag1434
ag1435
ag1436
ag1437
ag1438
ag1439
ag1440
ag1441
ag1442
ag1443
ag1444
ag1445
ag1446
ag1447
ag1448
ag1449
ag1450
ag1451
ag1452
ag1453
ag1454
ag1455
ag1456
ag1457
ag1458
ag1459
ag1460
ag1461
ag1462
ag1463
ag1464
ag1465
ag1466
ag1467
ag1468
ag1469
ag1470
ag1471
ag1472
ag1473
ag1474
ag1475
ag1476
ag1477
ag1478
ag1479
ag1480
ag1481
ag1482
ag1483
ag1484
ag1485
ag1486
ag1487
ag1488
ag1489
ag1490
ag1491
ag1492
ag1493
ag1494
ag1495
ag1496
ag1497
ag1498
ag1499
ag1500
ag1501
ag1502
ag1503
ag1504
ag1505
ag1506
ag1507
ag1508
ag1509
ag1510
ag1511
ag1512
ag1513
ag1514
ag1515
ag1516
ag1517
ag1518
ag1519
ag1520
ag1521
ag1522
ag1523
ag1524
ag1525
ag1526
ag1527
ag1528
ag1529
ag1530
ag1531
ag1532
ag1533
ag1534
ag1535
ag1536
ag1537
ag1538
ag1539
ag1540
ag1541
ag1542
ag1543
ag1544
ag1545
ag1546
ag1547
ag1548
ag1549
ag1550
ag1551
ag1552
ag1553
ag1554
ag1555
ag1556
ag1557
ag1558
ag1559
ag1560
ag1561
ag1562
ag1563
ag1564
ag1565
ag1566
ag1567
ag1568
ag1569
ag1570
ag1571
ag1572
ag1573
ag1574
ag1575
ag1576
ag1577
ag1578
ag1579
ag1580
ag1581
ag1582
ag1583
ag1584
ag1585
ag1586
ag1587
ag1588
ag1589
ag1590
ag1591
ag1592
ag1593
ag1594
ag1595
ag1596
ag1597
ag1598
ag1599
ag1600
ag1601
ag1602
ag1603
ag1604
ag1605
ag1606
ag1607
ag1608
ag1609
ag1610
ag1611
ag1612
ag1613
ag1614
ag1615
ag1616
ag1617
ag1618
ag1619
ag1620
ag1621
ag1622
ag1623
ag1624
ag1625
ag1626
ag1627
ag1628
ag1629
ag1630
ag1631
ag1632
ag1633
ag1634
ag1635
ag1636
ag1637
ag1638
ag1639
ag1640
ag1641
ag1642
ag1643
ag1644
ag1645
ag1646
ag1647
ag1648
ag1649
ag1650
ag1651
ag1652
ag1653
ag1654
ag1655
ag1656
ag1657
ag1658
ag1659
ag1660
ag1661
ag1662
ag1663
ag1664
ag1665
ag1666
ag1667
ag1668
ag1669
ag1670
ag1671
ag1672
ag1673
ag1674
ag1675
ag1676
ag1677
ag1678
ag1679
ag1680
ag1681
ag1682
ag1683
ag1684
ag1685
ag1686
ag1687
ag1688
ag1689
ag1690
ag1691
ag1692
ag1693
ag1694
ag1695
ag1696
ag1697
ag1698
ag1699
ag1700
ag1701
ag1702
ag1703
ag1704
ag1705
ag1706
ag1707
ag1708
ag1709
ag1710
ag1711
ag1712
ag1713
ag1714
ag1715
ag1716
ag1717
ag1718
ag1719
ag1720
ag1721
ag1722
ag1723
ag1724
ag1725
ag1726
ag1727
ag1728
ag1729
ag1730
ag1731
ag1732
ag1733
ag1734
ag1735
ag1736
ag1737
ag1738
ag1739
ag1740
ag1741
ag1742
ag1743
ag1744
ag1745
ag1746
ag1747
ag1748
ag1749
ag1750
ag1751
ag1752
ag1753
ag1754
ag1755
ag1756
ag1757
ag1758
ag1759
ag1760
ag1761
ag1762
ag1763
ag1764
ag1765
ag1766
ag1767
ag1768
ag1769
ag1770
ag1771
ag1772
ag1773
ag1774
ag1775
ag1776
ag1777
ag1778
ag1779
ag1780
ag1781
ag1782
ag1783
ag1784
ag1785
ag1786
ag1787
ag1788
ag1789
ag1790
ag1791
ag1792
ag1793
ag1794
ag1795
ag1796
ag1797
ag1798
ag1799
ag1800
ag1801
ag1802
ag1803
ag1804
ag1805
ag1806
ag1807
ag1808
ag1809
ag1810
ag1811
ag1812
ag1813
ag1814
ag1815
ag1816
ag1817
ag1818
ag1819
ag1820
ag1821
ag1822
ag1823
ag1824
ag1825
ag1826
ag1827
ag1828
ag1829
ag1830
ag1831
ag1832
ag1833
ag1834
ag1835
ag1836
ag1837
ag1838
ag1839
ag1840
ag1841
ag1842
ag1843
ag1844
ag1845
ag1846
ag1847
ag1848
ag1849
ag1850
ag1851
ag1852
ag1853
ag1854
ag1855
ag1856
ag1857
ag1858
ag1859
ag1860
ag1861
ag1862
ag1863
ag1864
ag1865
ag1866
ag1867
ag1868
ag1869
ag1870
ag1871
ag1872
ag1873
ag1874
ag1875
ag1876
ag1877
ag1878
ag1879
ag1880
ag1881
ag1882
ag1883
ag1884
ag1885
ag1886
ag1887
ag1888
ag1889
ag1890
ag1891
ag1892
ag1893
ag1894
ag1895
ag1896
ag1897
ag1898
ag1899
ag1900
ag1901
ag1902
ag1903
ag1904
ag1905
ag1906
ag1907
ag1908
ag1909
ag1910
ag1911
ag1912
ag1913
ag1914
ag1915
ag1916
ag1917
ag1918
ag1919
ag1920
ag1921
ag1922
ag1923
ag1924
ag1925
ag1926
ag1927
ag1928
ag1929
ag1930
ag1931
ag1932
ag1933
ag1934
ag1935
ag1936
ag1937
ag1938
ag1939
ag1940
ag1941
ag1942
ag1943
ag1944
ag1945
ag1946
ag1947
ag1948
ag1949
ag1950
ag1951
ag1952
ag1953
ag1954
ag1955
ag1956
ag1957
ag1958
ag1959
ag1960
ag1961
ag1962
ag1963
ag1964
ag1965
ag1966
ag1967
ag1968
ag1969
ag1970
ag1971
ag1972
ag1973
ag1974
ag1975
ag1976
ag1977
ag1978
ag1979
ag1980
ag1981
ag1982
ag1983
ag1984
ag1985
ag1986
ag1987
ag1988
ag1989
ag1990
ag1991
ag1992
ag1993
ag1994
ag1995
ag1996
ag1997
ag1998
ag1999
ag2000
ag2001
ag2002
ag2003
ag2004
ag2005
ag2006
ag2007
ag2008
ag2009
ag2010
ag2011
ag2012
ag2013
ag2014
ag2015
ag2016
ag2017
ag2018
ag2019
ag2020
ag2021
ag2022
ag2023
ag2024
ag2025
ag2026
ag2027
ag2028
ag2029
ag2030
ag2031
ag2032
ag2033
ag2034
ag2035
ag2036
ag2037
ag2038
ag2039
ag2040
ag2041
ag2042
ag2043
ag2044
ag2045
ag2046
ag2047
ag2048
ag2049
ag2050
ag2051
ag2052
ag2053
ag2054
ag2055
ag2056
ag2057
ag2058
ag2059
ag2060
ag2061
ag2062
ag2063
ag2064
ag2065
ag2066
ag2067
ag2068
ag2069
ag2070
ag2071
ag2072
ag2073
ag2074
ag2075
ag2076
ag2077
ag2078
ag2079
ag2080
ag2081
ag2082
ag2083
ag2084
ag2085
ag2086
ag2087
ag2088
ag2089
ag2090
ag2091
ag2092
ag2093
ag2094
ag2095
ag2096
ag2097
ag2098
ag2099
ag2100
ag2101
ag2102
ag2103
ag2104
ag2105
ag2106
ag2107
ag2108
ag2109
ag2110
ag2111
ag2112
ag2113
ag2114
ag2115
ag2116
ag2117
ag2118
ag2119
ag2120
ag2121
ag2122
ag2123
ag2124
ag2125
ag2126
ag2127
ag2128
ag2129
ag2130
ag2131
ag2132
ag2133
ag2134
ag2135
ag2136
ag2137
ag2138
ag2139
ag2140
ag2141
ag2142
ag2143
ag2144
ag2145
ag2146
ag2147
ag2148
ag2149
ag2150
ag2151
ag2152
ag2153
ag2154
ag2155
ag2156
ag2157
ag2158
ag2159
ag2160
ag2161
ag2162
ag2163
ag2164
ag2165
ag2166
ag2167
ag2168
ag2169
ag2170
ag2171
ag2172
ag2173
ag2174
ag2175
ag2176
ag2177
ag2178
ag2179
ag2180
ag2181
ag2182
ag2183
ag2184
ag2185
ag2186
ag2187
ag2188
ag2189
ag2190
ag2191
ag2192
ag2193
ag2194
ag2195
ag2196
ag2197
ag2198
ag2199
ag2200
ag2201
ag2202
ag2203
ag2204
ag2205
ag2206
ag2207
ag2208
ag2209
ag2210
ag2211
ag2212
ag2213
ag2214
ag2215
ag2216
ag2217
ag2218
ag2219
ag2220
ag2221
ag2222
ag2223
ag2224
ag2225
ag2226
ag2227
ag2228
ag2229
ag2230
ag2231
ag2232
ag2233
ag2234
ag2235
ag2236
ag2237
ag2238
ag2239
ag2240
ag2241
ag2242
ag2243
ag2244
ag2245
ag2246
ag2247
ag2248
ag2249
ag2250
ag2251
ag2252
ag2253
ag2254
ag2255
ag2256
ag2257
ag2258
ag2259
ag2260
ag2261
ag2262
ag2263
ag2264
ag2265
ag2266
ag2267
ag2268
ag2269
ag2270
ag2271
ag2272
ag2273
ag2274
ag2275
ag2276
ag2277
ag2278
ag2279
ag2280
ag2281
ag2282
ag2283
ag2284
ag2285
ag2286
ag2287
ag2288
ag2289
ag2290
ag2291
ag2292
ag2293
ag2294
ag2295
ag2296
ag2297
ag2298
ag2299
ag2300
ag2301
ag2302
ag2303
ag2304
ag2305
ag2306
ag2307
ag2308
ag2309
ag2310
ag2311
ag2312
ag2313
ag2314
ag2315
ag2316
ag2317
ag2318
ag2319
ag2320
ag2321
ag2322
ag2323
ag2324
ag2325
ag2326
ag2327
ag2328
ag2329
ag2330
ag2331
ag2332
ag2333
ag2334
ag2335
ag2336
ag2337
ag2338
ag2339
ag2340
ag2341
ag2342
ag2343
ag2344
ag2345
ag2346
ag2347
ag2348
ag2349
ag2350
ag2351
ag2352
ag2353
ag2354
ag2355
ag2356
ag2357
ag2358
ag2359
ag2360
ag2361
ag2362
ag2363
ag2364
ag2365
ag2366
ag2367
ag2368
ag2369
ag2370
ag2371
ag2372
ag2373
ag2374
ag2375
ag2376
ag2377
ag2378
ag2379
ag2380
ag2381
ag2382
ag2383
ag2384
ag2385
ag2386
ag2387
ag2388
ag2389
ag2390
ag2391
ag2392
ag2393
ag2394
ag2395
ag2396
ag2397
ag2398
ag2399
ag2400
ag2401
ag2402
ag2403
ag2404
ag2405
ag2406
ag2407
ag2408
ag2409
ag2410
ag2411
ag2412
ag2413
ag2414
ag2415
ag2416
ag2417
ag70
ag2418
ag2419
ag2420
ag2421
ag2422
ag2423
ag2424
ag2425
ag2426
ag2427
ag2428
ag2429
ag2430
ag2431
ag2432
ag2433
ag2434
ag2435
ag2436
ag2437
ag2438
ag2439
ag2440
ag2441
ag2442
ag2443
ag2444
ag2445
ag2446
ag2447
ag2448
ag2449
ag2450
ag2451
ag2452
ag2453
ag2454
ag2455
ag2456
ag2457
ag2458
ag2459
ag2460
ag2461
ag2462
ag2463
ag2464
ag2465
ag2466
ag2467
ag2468
ag2469
ag2470
ag2471
ag2472
ag2473
ag2474
ag2475
ag2476
ag2477
ag2478
ag2479
ag2480
ag2481
ag2482
ag2483
ag2484
ag2485
ag2486
ag2487
ag2488
ag2489
ag2490
ag2491
ag2492
ag2493
ag2494
ag2495
ag2496
ag2497
ag2498
ag2499
ag2500
ag2501
ag2502
ag2503
ag2504
ag2505
ag2506
ag2507
ag2508
ag2509
ag2510
ag2511
ag2512
ag2513
ag2514
ag2515
ag2516
ag2517
ag2518
ag2519
ag2520
ag2521
ag2522
ag2523
ag2524
ag2525
ag2526
ag2527
ag2528
ag2529
ag2530
ag2531
ag2532
ag2533
ag2534
ag2535
ag2536
ag2537
ag2538
ag2539
ag2540
ag2541
ag2542
ag2543
ag2544
ag2545
ag2546
ag2547
ag2548
ag2549
ag2550
ag2551
ag2552
ag2553
ag2554
ag2555
ag2556
ag2557
ag2558
ag2559
ag2560
ag2561
ag2562
ag2563
ag2564
ag2565
ag2566
ag2567
ag2568
ag2569
ag2570
ag2571
ag2572
ag2573
ag2574
ag2575
ag2576
ag2577
ag2578
ag2579
ag2580
ag2581
ag2582
ag2583
ag2584
ag2585
ag2586
ag2587
ag2588
ag2589
ag2590
ag2591
ag2592
ag2593
ag2594
ag2595
ag2596
ag2597
ag2598
ag2599
ag2600
ag2601
ag2602
ag2603
ag2604
ag2605
ag2606
ag2607
ag2608
ag2609
ag2610
ag2611
ag2612
ag2613
ag2614
ag2615
ag2616
ag2617
ag2618
ag2619
ag2620
ag2621
ag2622
ag2623
ag2624
ag2625
ag2626
ag2627
ag2628
ag2629
ag2630
ag2631
ag2632
ag2633
ag2634
ag2635
ag2636
ag2637
ag2638
ag2639
ag2640
ag2641
ag2642
ag2643
ag2644
ag2645
ag2646
ag2647
ag2648
ag2649
ag2650
ag2651
ag2652
ag2653
ag2654
ag2655
ag2656
ag2657
ag2658
ag2659
ag2660
ag2661
ag2662
ag2663
ag2664
ag2665
ag2666
ag2667
ag2668
ag2669
ag2670
ag2671
ag2672
ag2673
ag2674
ag2675
ag2676
ag2677
ag2678
ag2679
ag2680
ag2681
ag2682
ag2683
ag2684
ag2685
ag2686
ag2687
ag2688
ag2689
ag2690
ag2691
ag2692
ag2693
ag2694
ag2695
ag2696
ag2697
ag2698
ag2699
ag2700
ag2701
ag2702
ag2703
ag2704
ag2705
ag2706
ag2707
ag2708
ag2709
ag2710
ag2711
ag2712
ag2713
ag2714
ag2715
ag2716
ag2717
ag2718
ag2719
ag2720
ag2721
ag2722
ag2723
ag2724
ag2725
ag2726
ag2727
ag2728
ag2729
ag2730
ag2731
ag2732
ag2733
ag2734
ag2735
ag2736
ag2737
ag2738
ag2739
ag2740
ag2741
ag2742
ag2743
ag2744
ag2745
ag2746
ag2747
ag2748
ag2749
ag2750
ag2751
ag2752
ag2753
ag2754
ag2755
ag2756
ag2757
ag2758
ag2759
ag2760
ag2761
ag2762
ag2763
ag2764
ag2765
ag2766
ag2767
ag2768
ag2769
ag2770
ag2771
ag2772
ag2773
ag2774
ag2775
ag2776
ag2777
ag2778
ag2779
ag2780
ag2781
ag2782
ag2783
ag2784
ag2785
ag2786
ag2787
ag2788
ag2789
ag2790
ag2791
ag2792
ag2793
ag2794
ag2795
ag2796
ag2797
ag2798
ag2799
ag2800
ag2801
ag2802
ag2803
ag2804
ag2805
ag2806
ag2807
ag2808
ag2809
ag2810
ag2811
ag2812
ag2813
ag2814
ag2815
ag2816
ag2817
ag2818
ag2819
ag2820
ag2821
ag2822
ag2823
ag2824
ag2825
ag2826
ag2827
ag2828
ag2829
ag2830
ag2831
ag2832
ag2833
ag2834
ag2835
ag2836
ag2837
ag2838
ag2839
ag2840
ag2841
ag2842
ag2843
ag2844
ag2845
ag2846
ag2847
ag2848
ag2849
ag2850
ag2851
ag2852
ag2853
ag2854
ag2855
ag2856
ag2857
ag2858
ag2859
ag2860
ag2861
ag2862
ag2863
ag2864
ag2865
ag2866
ag2867
ag2868
ag2869
ag2870
ag2871
ag2872
ag2873
ag2874
ag2875
ag2876
ag2877
ag2878
ag2879
ag2880
ag2881
ag2882
ag2883
ag2884
ag2885
ag2886
ag2887
ag2888
ag2889
ag2890
ag2891
ag2892
ag2893
ag2894
ag2895
ag2896
ag2897
ag2898
ag2899
ag2900
ag2901
ag2902
ag2903
ag2904
ag2905
ag2906
ag2907
ag2908
ag2909
ag2910
ag2911
ag2912
ag2913
ag2914
ag2915
ag2916
ag2917
ag2918
ag2919
ag2920
ag2921
ag2922
ag2923
ag2924
ag2925
ag2926
ag2927
ag2928
ag2929
ag2930
ag2931
ag2932
ag2933
ag2934
ag2935
ag2936
ag2937
ag2938
ag2939
ag2940
ag2941
ag2942
ag2943
ag2944
ag2945
ag2946
ag2947
ag2948
ag2949
ag2950
ag2951
ag2952
ag2953
ag2954
ag2955
ag2956
ag2957
ag2958
ag2959
ag2960
ag2961
ag2962
ag2963
ag2964
ag2965
ag2966
ag2967
ag2968
ag2969
ag2970
ag2971
ag2972
ag2973
ag2974
ag2975
ag2976
ag2977
ag2978
ag2979
ag2980
ag2981
ag2982
ag2983
ag2984
ag2985
ag2986
ag2987
ag2988
ag2989
ag2990
ag2991
ag2992
ag2993
ag2994
ag2995
ag2996
ag2997
ag2998
ag2999
ag3000
ag3001
ag3002
ag3003
ag3004
ag3005
ag3006
ag3007
ag3008
ag3009
ag3010
ag3011
ag3012
ag3013
ag3014
ag3015
ag3016
ag3017
ag3018
ag3019
ag3020
ag3021
ag3022
ag3023
ag3024
ag3025
ag3026
ag3027
ag3028
ag3029
ag3030
ag3031
ag3032
ag3033
ag3034
ag3035
ag3036
ag3037
ag3038
ag3039
ag3040
ag3041
ag3042
ag3043
ag3044
ag3045
ag3046
ag3047
ag3048
ag3049
ag3050
ag3051
ag3052
ag3053
ag3054
ag3055
ag3056
ag3057
ag3058
ag3059
ag3060
ag3061
ag3062
ag3063
ag3064
ag3065
ag3066
ag3067
ag3068
ag3069
ag3070
ag3071
ag3072
ag3073
ag3074
ag3075
ag3076
ag3077
ag3078
ag3079
ag3080
ag3081
ag3082
ag3083
ag3084
ag3085
ag3086
ag3087
ag3088
ag3089
ag3090
ag3091
ag3092
ag3093
ag3094
ag3095
ag3096
ag3097
ag3098
ag3099
ag3100
ag3101
ag3102
ag3103
ag3104
ag3105
ag3106
ag3107
ag3108
ag3109
ag3110
ag3111
ag3112
ag3113
ag3114
ag3115
ag3116
ag3117
ag3118
ag3119
ag3120
ag3121
ag3122
ag3123
ag3124
ag3125
ag3126
ag3127
ag3128
ag3129
ag3130
ag3131
ag3132
ag3133
ag3134
ag3135
ag3136
ag3137
ag3138
ag3139
ag3140
ag3141
ag3142
ag3143
ag3144
ag3145
ag3146
ag3147
ag3148
ag3149
ag3150
ag3151
ag3152
ag3153
ag3154
ag3155
ag3156
ag3157
ag3158
ag3159
ag3160
ag3161
ag3162
ag3163
ag3164
ag3165
ag3166
ag3167
ag3168
ag3169
ag3170
ag3171
ag3172
ag3173
ag3174
ag3175
ag3176
ag3177
ag3178
ag3179
ag3180
ag3181
ag3182
ag3183
ag3184
ag3185
ag3186
ag3187
ag3188
ag3189
ag3190
ag3191
ag3192
ag3193
ag3194
ag3195
ag3196
ag3197
ag3198
ag3199
ag3200
ag3201
ag3202
ag3203
ag3204
ag3205
ag3206
ag3207
ag3208
ag3209
ag3210
ag3211
ag3212
ag65
ag3213
ag3214
ag3215
ag3216
ag3217
ag3218
ag3219
ag3220
ag3221
ag3222
ag3223
ag3224
ag3225
ag3226
ag3227
ag3228
ag3229
ag3230
ag3231
ag3232
ag3233
ag3234
ag3235
ag3236
ag3237
ag3238
ag3239
ag3240
ag3241
ag3242
ag3243
ag3244
ag3245
ag3246
ag3247
ag3248
ag3249
ag3250
ag3251
ag3252
ag3253
ag3254
ag3255
ag3256
ag3257
ag3258
ag3259
ag3260
ag3261
ag3262
ag3263
ag3264
ag3265
ag3266
ag3267
ag3268
ag3269
ag3270
ag3271
ag3272
ag3273
ag3274
ag3275
ag3276
ag3277
ag3278
ag3279
ag3280
ag3281
ag3282
ag3283
ag3284
ag3285
ag3286
ag3287
ag3288
ag3289
ag3290
ag3291
ag3292
ag3293
ag3294
ag3295
ag3296
ag3297
ag3298
ag3299
ag3300
ag3301
ag3302
ag3303
ag3304
ag3305
ag3306
ag3307
ag3308
ag3309
ag3310
ag3311
ag3312
ag3313
ag3314
ag3315
ag3316
ag3317
ag3318
ag3319
ag3320
ag3321
ag3322
ag3323
ag3324
ag3325
ag3326
ag3327
ag3328
ag3329
ag3330
ag3331
ag3332
ag3333
ag3334
ag3335
ag3336
ag3337
ag3338
ag3339
ag3340
ag3341
ag3342
ag3343
ag3344
ag3345
ag3346
ag3347
ag3348
ag3349
ag3350
ag3351
ag3352
ag3353
ag3354
ag3355
ag3356
ag3357
ag3358
ag3359
ag3360
ag3361
ag3362
ag3363
ag3364
ag3365
ag3366
ag3367
ag3368
ag3369
ag3370
ag3371
ag3372
ag3373
ag3374
ag3375
ag3376
ag3377
ag3378
ag3379
ag3380
ag3381
ag3382
ag3383
ag3384
ag3385
ag3386
ag3387
ag3388
ag3389
ag3390
ag3391
ag3392
ag3393
ag3394
ag3395
ag3396
ag3397
ag3398
ag3399
ag3400
ag3401
ag3402
ag3403
ag3404
ag3405
ag3406
ag3407
ag3408
ag3409
ag3410
ag3411
ag3412
ag3413
ag3414
ag3415
ag3416
ag3417
ag3418
ag3419
ag3420
ag3421
ag3422
ag3423
ag3424
ag3425
ag3426
ag3427
ag3428
ag3429
ag3430
ag3431
ag3432
ag3433
ag3434
ag3435
ag3436
ag3437
ag3438
ag3439
ag3440
ag3441
ag3442
ag3443
ag3444
ag3445
ag3446
ag3447
ag3448
ag3449
ag67
ag3450
ag3451
ag3452
ag3453
ag3454
ag3455
ag3456
ag3457
ag3458
ag3459
ag3460
ag3461
ag3462
ag3463
ag3464
ag3465
ag3466
ag3467
ag3468
ag3469
ag3470
ag3471
ag3472
ag3473
ag3474
ag3475
ag3476
ag3477
ag3478
ag3479
ag3480
ag3481
ag3482
ag3483
ag3484
ag3485
ag3486
ag3487
ag3488
ag3489
ag3490
ag3491
ag3492
ag3493
ag3494
ag3495
ag3496
ag3497
ag3498
ag3499
ag3500
ag3501
ag3502
ag3503
ag3504
ag3505
ag3506
ag3507
ag3508
ag3509
ag3510
ag3511
ag3512
ag3513
ag3514
ag3515
ag3516
ag3517
ag3518
ag3519
ag3520
ag3521
ag3522
ag3523
ag3524
ag3525
ag3526
ag3527
ag3528
ag3529
ag3530
ag3531
ag3532
ag3533
ag3534
ag3535
ag3536
ag3537
ag3538
ag3539
ag3540
ag3541
ag3542
ag3543
ag3544
ag3545
ag3546
ag3547
ag3548
ag3549
ag3550
ag3551
ag3552
ag3553
ag3554
ag3555
ag3556
ag3557
ag3558
ag3559
ag3560
ag3561
ag3562
ag3563
ag3564
ag3565
ag3566
ag3567
ag3568
ag3569
ag3570
ag3571
ag3572
ag3573
ag3574
ag3575
ag3576
ag3577
ag3578
ag3579
ag3580
ag3581
ag3582
ag3583
ag3584
ag3585
ag3586
ag3587
ag3588
ag3589
ag3590
ag3591
ag3592
ag3593
ag3594
ag3595
ag3596
ag3597
ag3598
ag3599
ag3600
ag3601
ag3602
ag3603
ag3604
ag3605
ag3606
ag3607
ag3608
ag3609
ag3610
ag3611
ag3612
ag3613
ag3614
ag3615
ag3616
ag3617
ag3618
ag3619
ag3620
ag3621
ag3622
ag3623
ag3624
ag3625
ag3626
ag3627
ag3628
ag3629
ag3630
ag3631
ag3632
ag3633
ag3634
ag3635
ag3636
ag3637
ag3638
ag3639
ag3640
ag3641
ag3642
ag3643
ag3644
ag3645
ag3646
ag3647
ag3648
ag3649
ag3650
ag3651
ag3652
ag3653
ag3654
ag3655
ag3656
ag3657
ag3658
ag3659
ag3660
ag3661
ag3662
ag3663
ag3664
ag3665
ag3666
ag3667
ag3668
ag3669
ag3670
ag3671
ag3672
ag3673
ag3674
ag3675
ag3676
ag3677
ag3678
ag3679
ag3680
ag3681
ag3682
ag3683
ag3684
ag3685
ag3686
ag3687
ag3688
ag3689
ag3690
ag3691
ag3692
ag3693
ag3694
ag3695
ag3696
ag3697
ag3698
ag3699
ag3700
ag3701
ag3702
ag3703
ag3704
ag3705
ag3706
ag3707
ag3708
ag3709
ag3710
ag3711
ag3712
ag3713
ag3714
ag3715
ag3716
ag3717
ag3718
ag3719
ag3720
ag3721
ag3722
ag3723
ag3724
ag3725
ag3726
ag3727
ag3728
ag3729
ag3730
ag3731
ag3732
ag3733
ag3734
ag3735
ag3736
ag3737
ag3738
ag3739
ag3740
ag3741
ag3742
ag3743
ag3744
ag3745
ag3746
ag3747
ag3748
ag3749
ag3750
ag3751
ag3752
ag3753
ag3754
ag3755
ag3756
ag3757
ag3758
ag3759
ag3760
ag3761
ag3762
ag3763
ag3764
ag3765
ag3766
ag3767
ag3768
ag3769
ag3770
ag3771
ag3772
ag3773
ag3774
ag3775
ag3776
ag3777
ag3778
ag3779
ag3780
ag3781
ag3782
ag3783
ag3784
ag3785
ag3786
ag3787
ag3788
ag3789
ag3790
ag3791
ag3792
ag3793
ag3794
ag3795
ag3796
ag3797
ag3798
ag3799
ag3800
ag3801
ag3802
ag3803
ag3804
ag3805
ag3806
ag3807
ag3808
ag3809
ag3810
ag3811
ag3812
ag3813
ag3814
ag3815
ag3816
ag3817
ag3818
ag3819
ag3820
ag3821
ag3822
ag3823
ag3824
ag3825
ag3826
ag3827
ag3828
ag3829
ag3830
ag3831
ag3832
ag3833
ag3834
ag3835
ag3836
ag3837
ag3838
ag3839
ag3840
ag3841
ag3842
ag3843
ag3844
ag3845
ag3846
ag3847
ag3848
ag3849
ag3850
ag3851
ag3852
ag3853
ag3854
ag3855
ag3856
ag3857
ag3858
ag3859
ag3860
ag3861
ag3862
ag3863
ag3864
ag3865
ag3866
ag3867
ag3868
ag3869
ag3870
ag3871
ag3872
ag3873
ag3874
ag3875
ag3876
ag3877
ag3878
ag3879
ag3880
ag3881
ag3882
ag3883
ag3884
ag3885
ag3886
ag3887
ag3888
ag3889
ag3890
ag3891
ag3892
ag3893
ag3894
ag3895
ag3896
ag3897
ag3898
ag3899
ag3900
ag3901
ag3902
ag3903
ag3904
ag3905
ag3906
ag3907
ag3908
ag3909
ag3910
ag3911
ag3912
ag3913
ag3914
ag3915
ag3916
ag3917
ag3918
ag3919
ag3920
ag3921
ag3922
ag3923
ag3924
ag3925
ag3926
ag3927
ag3928
ag3929
ag3930
ag3931
ag3932
ag3933
ag3934
ag3935
ag3936
ag3937
ag3938
ag3939
ag3940
ag3941
ag3942
ag3943
ag3944
ag3945
ag3946
ag3947
ag3948
ag3949
ag3950
ag3951
ag3952
ag3953
ag3954
ag3955
ag3956
ag3957
ag3958
ag3959
ag3960
ag3961
ag3962
ag3963
ag3964
ag3965
ag3966
ag3967
ag3968
ag3969
ag3970
ag3971
ag3972
ag3973
ag3974
ag3975
ag3976
ag3977
ag3978
ag3979
ag3980
ag3981
ag3982
ag3983
ag3984
ag3985
ag3986
ag3987
ag3988
ag3989
ag3990
ag3991
ag3992
ag3993
ag3994
ag3995
ag3996
ag3997
ag3998
ag3999
ag4000
ag4001
ag4002
ag4003
ag4004
ag4005
ag4006
ag4007
ag4008
ag4009
ag4010
ag4011
ag4012
ag4013
ag4014
ag4015
ag4016
ag4017
ag4018
ag4019
ag4020
ag4021
ag4022
ag4023
ag4024
ag4025
ag4026
ag4027
ag4028
ag4029
ag4030
ag4031
ag4032
ag4033
ag4034
ag4035
ag4036
ag4037
ag4038
ag4039
ag4040
ag4041
ag4042
ag4043
ag4044
ag4045
ag4046
ag4047
ag4048
ag4049
ag4050
ag4051
ag4052
ag4053
ag4054
ag4055
ag4056
ag4057
ag4058
ag4059
ag4060
ag4061
ag4062
ag4063
ag4064
ag4065
ag4066
ag4067
ag4068
ag4069
ag4070
ag4071
ag4072
ag4073
ag4074
ag4075
ag4076
ag4077
ag4078
ag4079
ag4080
ag4081
ag4082
ag4083
ag4084
ag4085
ag4086
ag4087
ag4088
ag4089
ag4090
ag4091
ag4092
ag4093
ag4094
ag4095
ag4096
ag4097
ag4098
ag4099
ag4100
ag4101
ag4102
ag4103
ag4104
ag4105
ag4106
ag4107
ag4108
ag4109
ag4110
ag4111
ag4112
ag4113
ag4114
ag4115
ag4116
ag4117
ag4118
ag4119
ag4120
ag4121
ag4122
ag4123
ag4124
ag4125
ag4126
ag4127
ag4128
ag4129
ag4130
ag4131
ag4132
ag4133
ag4134
ag4135
ag4136
ag4137
ag4138
ag4139
ag4140
ag4141
ag4142
ag4143
ag4144
ag4145
ag4146
ag4147
ag4148
ag4149
ag4150
ag4151
ag4152
ag4153
ag4154
ag4155
ag4156
ag4157
ag4158
ag4159
ag4160
ag4161
ag4162
ag4163
ag4164
ag4165
ag4166
ag4167
ag4168
ag4169
ag4170
ag4171
ag4172
ag4173
ag4174
ag4175
ag4176
ag4177
ag4178
ag4179
ag4180
ag4181
ag4182
ag4183
ag4184
ag4185
ag4186
ag4187
ag4188
ag4189
ag4190
ag4191
ag4192
ag4193
ag4194
ag4195
ag4196
ag4197
ag4198
ag4199
ag4200
ag4201
ag4202
ag4203
ag4204
ag4205
ag4206
ag4207
ag4208
ag4209
ag4210
ag4211
ag4212
ag4213
ag4214
ag4215
ag4216
ag4217
ag4218
ag4219
ag4220
ag4221
ag4222
ag4223
ag4224
ag4225
ag4226
ag4227
ag4228
ag4229
ag4230
ag4231
ag4232
ag4233
ag4234
ag4235
ag4236
ag4237
ag4238
ag4239
ag4240
ag4241
ag4242
ag4243
ag4244
ag4245
ag4246
ag4247
ag4248
ag4249
ag4250
ag4251
ag4252
ag4253
ag4254
ag4255
ag4256
ag4257
ag4258
ag4259
ag4260
ag4261
ag4262
ag4263
ag4264
ag4265
ag4266
ag4267
ag4268
ag4269
ag4270
ag4271
ag4272
ag4273
ag4274
ag4275
ag4276
ag4277
ag4278
ag4279
ag4280
ag4281
ag4282
ag4283
ag4284
ag4285
ag4286
ag4287
ag4288
ag4289
ag4290
ag4291
ag4292
ag4293
ag4294
ag4295
ag4296
ag4297
ag4298
ag4299
ag4300
ag4301
ag4302
ag4303
ag4304
ag4305
ag4306
ag4307
ag4308
ag4309
ag4310
ag4311
ag4312
ag4313
ag4314
ag4315
ag4316
ag4317
ag4318
ag4319
ag4320
ag4321
ag4322
ag4323
ag4324
ag4325
ag4326
ag4327
ag4328
ag4329
ag4330
ag4331
ag4332
ag4333
ag4334
ag4335
ag4336
ag4337
ag4338
ag4339
ag4340
ag4341
ag4342
ag4343
ag4344
ag4345
ag4346
ag4347
ag4348
ag4349
ag4350
ag4351
ag4352
ag4353
ag4354
ag4355
ag4356
ag4357
ag4358
ag4359
ag4360
ag4361
ag4362
ag4363
ag4364
ag4365
ag4366
ag4367
ag4368
ag4369
ag4370
ag4371
ag4372
ag4373
ag4374
ag4375
ag4376
ag4377
ag4378
ag4379
ag4380
ag4381
ag4382
ag4383
ag4384
ag4385
ag4386
ag4387
ag4388
ag4389
ag4390
ag4391
ag4392
ag4393
ag4394
ag4395
ag4396
ag4397
ag4398
ag4399
ag4400
ag4401
ag4402
ag4403
ag4404
ag4405
ag4406
ag4407
ag4408
ag4409
ag4410
ag4411
ag4412
ag4413
ag4414
ag4415
ag4416
ag4417
ag4418
ag4419
ag4420
ag4421
ag4422
ag4423
ag4424
ag4425
ag4426
ag4427
ag4428
ag4429
ag4430
ag4431
ag4432
ag4433
ag4434
ag4435
ag4436
ag4437
ag4438
ag4439
ag4440
ag4441
ag4442
ag4443
ag4444
ag4445
ag4446
ag4447
ag4448
ag4449
ag4450
ag4451
ag4452
ag4453
ag4454
ag4455
ag4456
ag4457
ag4458
ag4459
ag4460
ag4461
ag4462
ag4463
ag4464
ag4465
ag4466
ag4467
ag4468
ag4469
ag4470
ag4471
ag4472
ag76
ag4473
ag4474
ag4475
ag4476
ag4477
ag4478
ag4479
ag4480
ag4481
ag4482
ag4483
ag4484
ag4485
ag4486
ag4487
ag4488
ag4489
ag4490
ag4491
ag4492
ag4493
ag4494
ag4495
ag4496
ag4497
ag4498
ag4499
ag4500
ag4501
ag4502
ag4503
ag4504
ag4505
ag4506
ag4507
ag4508
ag4509
ag4510
ag4511
ag4512
ag4513
ag4514
ag4515
ag4516
ag4517
ag4518
ag4519
ag4520
ag4521
ag4522
ag4523
ag4524
ag4525
ag4526
ag4527
ag4528
ag4529
ag4530
ag4531
ag4532
ag4533
ag4534
ag4535
ag4536
ag4537
ag4538
ag4539
ag4540
ag4541
ag4542
ag4543
ag4544
ag4545
ag4546
ag4547
ag4548
ag4549
ag4550
ag4551
ag4552
ag4553
ag4554
ag4555
ag4556
ag4557
ag4558
ag4559
ag4560
ag4561
ag4562
ag4563
ag4564
ag4565
ag4566
ag4567
ag4568
ag4569
ag4570
ag4571
ag4572
ag4573
ag4574
ag4575
ag4576
ag4577
ag4578
ag4579
ag4580
ag4581
ag4582
ag4583
ag4584
ag4585
ag4586
ag4587
ag4588
ag4589
ag4590
ag4591
ag4592
ag4593
ag4594
ag4595
ag4596
ag4597
ag4598
ag4599
ag4600
ag4601
ag4602
ag4603
ag4604
ag4605
ag4606
ag4607
ag4608
ag4609
ag4610
ag4611
ag4612
ag4613
ag4614
ag4615
ag4616
ag4617
ag4618
ag4619
ag4620
ag4621
ag4622
ag4623
ag4624
ag4625
ag4626
ag4627
ag4628
ag4629
ag4630
ag4631
ag4632
ag4633
ag4634
ag4635
ag4636
ag4637
ag4638
ag4639
ag4640
ag4641
ag4642
ag4643
ag4644
ag4645
ag4646
ag4647
ag4648
ag4649
ag4650
ag4651
ag4652
ag4653
ag4654
ag4655
ag4656
ag4657
ag4658
ag4659
ag4660
ag4661
ag4662
ag4663
ag4664
ag4665
ag4666
ag4667
ag4668
ag4669
ag4670
ag4671
ag4672
ag4673
ag4674
ag4675
ag4676
ag4677
ag4678
ag4679
ag4680
ag4681
ag4682
ag4683
ag4684
ag4685
ag4686
ag4687
ag4688
ag4689
ag4690
ag4691
ag4692
ag4693
ag4694
ag4695
ag4696
ag4697
ag4698
ag4699
ag4700
ag4701
ag4702
ag4703
ag4704
ag4705
ag4706
ag4707
ag4708
ag4709
ag4710
ag4711
ag4712
ag4713
ag4714
ag4715
ag4716
ag4717
ag4718
ag4719
ag4720
ag4721
ag4722
ag4723
ag4724
ag4725
ag4726
ag4727
ag4728
ag4729
ag4730
ag4731
ag4732
ag4733
ag4734
ag4735
ag4736
ag4737
ag4738
ag4739
ag4740
ag4741
ag4742
ag4743
ag4744
ag4745
ag4746
ag4747
ag4748
ag4749
ag4750
ag4751
ag4752
ag4753
ag4754
ag4755
ag4756
ag4757
ag4758
ag4759
ag4760
ag4761
ag4762
ag4763
ag4764
ag4765
ag4766
ag4767
ag4768
ag4769
ag4770
ag4771
ag4772
ag4773
ag4774
ag4775
ag4776
ag4777
ag4778
ag4779
ag4780
ag4781
ag4782
ag4783
ag4784
ag4785
ag4786
ag4787
ag4788
ag4789
ag4790
ag4791
ag4792
ag4793
ag4794
ag4795
ag4796
ag4797
ag4798
ag4799
ag4800
ag4801
ag4802
ag4803
ag4804
ag4805
ag4806
ag4807
ag4808
ag4809
ag4810
ag4811
ag4812
ag4813
ag4814
ag4815
ag4816
ag4817
ag4818
ag4819
ag4820
ag4821
ag4822
ag4823
ag4824
ag4825
ag4826
ag4827
ag4828
ag4829
ag4830
ag4831
ag4832
ag4833
ag4834
ag4835
ag4836
ag4837
ag4838
ag4839
ag4840
ag4841
ag4842
ag4843
ag4844
ag4845
ag4846
ag4847
ag4848
ag4849
ag4850
ag4851
ag4852
ag4853
ag4854
ag4855
ag4856
ag4857
ag4858
ag4859
ag4860
ag4861
ag4862
ag4863
ag4864
ag4865
ag4866
ag4867
ag4868
ag4869
ag4870
ag4871
ag4872
ag4873
ag4874
ag4875
ag4876
ag4877
ag4878
ag4879
ag4880
ag4881
ag4882
ag4883
ag4884
ag4885
ag4886
ag4887
ag4888
ag4889
ag4890
ag4891
ag4892
ag4893
ag4894
ag4895
ag4896
ag4897
ag4898
ag4899
ag4900
ag4901
ag4902
ag4903
ag4904
ag4905
ag4906
ag4907
ag4908
ag4909
ag4910
ag4911
ag4912
ag4913
ag4914
ag4915
ag4916
ag4917
ag4918
ag4919
ag4920
ag4921
ag4922
ag4923
ag4924
ag4925
ag4926
ag4927
ag4928
ag4929
ag4930
ag4931
ag4932
ag4933
ag4934
ag4935
ag4936
ag4937
ag4938
ag4939
ag4940
ag4941
ag4942
ag4943
ag4944
ag4945
ag4946
ag4947
ag4948
ag4949
ag4950
ag4951
ag4952
ag4953
ag4954
ag4955
ag4956
ag4957
ag4958
ag4959
ag4960
ag4961
ag4962
ag4963
ag4964
ag4965
ag4966
ag4967
ag4968
ag4969
ag4970
ag4971
ag4972
ag4973
ag4974
ag4975
ag4976
ag4977
ag4978
ag4979
ag4980
ag4981
ag4982
ag4983
ag4984
ag4985
ag4986
ag4987
ag4988
ag4989
ag4990
ag4991
ag4992
ag4993
ag4994
ag4995
ag4996
ag4997
asS'label_dict'
p5000
(dp5001
g4
I0
sg5
I1
sg6
I2
sg7
I3
sg8
I4
sg9
I5
sg10
I6
sg11
I7
sg12
I8
sg13
I9
sg14
I39
sg15
I11
sg16
I12
sg17
I13
sg18
I14
sg19
I15
sg20
I16
sg21
I17
sg22
I18
sg23
I19
sg24
I20
sg25
I21
sg26
I22
sg27
I23
sg28
I24
sg29
I25
sg30
I26
sg31
I27
sg32
I28
sg33
I29
sg34
I30
sg35
I31
sg36
I32
sg37
I33
sg38
I34
sg39
I35
sg40
I36
sg41
I37
sg42
I38
sg43
I10
sg44
I40
sg45
I41
sg46
I42
sg47
I43
sg48
I44
sg49
I45
ssS'pos_dict'
p5002
(dp5003
g52
I0
sg53
I1
sg54
I17
sg55
I3
sg56
I4
sg57
I18
sg58
I6
sg59
I7
sg60
I8
sg61
I9
sg62
I10
sg63
I11
sg64
I12
sg65
I13
sg66
I14
sg67
I15
sg68
I16
sg69
I2
sg70
I5
sg71
I19
sg72
I20
sg73
I21
sg74
I22
sg75
I23
sg76
I24
sg77
I25
sg78
I26
sg79
I27
sg80
I28
sg81
I29
sg82
I30
sg83
I31
sg84
I32
sg85
I33
sg86
I34
sg87
I35
sg88
I36
sg89
I37
sg90
I38
sg91
I39
sg92
I40
sg93
I41
sg94
I42
sg95
I43
sg96
I44
ssb(inet_properties
NetProperties
p5004
(dp5005
S'label_embed_dim'
p5006
I32
sS'hidden_two_dim'
p5007
I400
sS'pos_embed_dim'
p5008
I32
sS'word_embed_dim'
p5009
I64
sS'hidden_one_dim'
p5010
I400
sS'minibatch_size'
p5011
I1000
sbtp5012
.